	.attribute	4, 16
	.attribute	5, "rv32i2p1_m2p0_a2p1_f2p2_c2p0_zicsr2p0_zmmul1p0_zaamo1p0_zalrsc1p0"
	.file	"tensor.cpp"
	.section	.text._ZN6TensorIfEC2Ev,"axG",@progbits,_ZN6TensorIfEC5Ev,comdat
	.weak	_ZN6TensorIfEC2Ev               # -- Begin function _ZN6TensorIfEC2Ev
	.p2align	1
	.type	_ZN6TensorIfEC2Ev,@function
_ZN6TensorIfEC2Ev:                      # @_ZN6TensorIfEC2Ev
# %bb.0:                                # %entry
	sw	zero, 16(a0)
	sw	zero, 20(a0)
	sw	zero, 0(a0)
	sw	zero, 4(a0)
	sw	zero, 8(a0)
	sw	zero, 12(a0)
	ret
.Lfunc_end0:
	.size	_ZN6TensorIfEC2Ev, .Lfunc_end0-_ZN6TensorIfEC2Ev
                                        # -- End function
	.section	.text._ZN6TensorIfEC2ESt6vectorIfSaIfEES1_IiSaIiEE,"axG",@progbits,_ZN6TensorIfEC5ESt6vectorIfSaIfEES1_IiSaIiEE,comdat
	.weak	_ZN6TensorIfEC2ESt6vectorIfSaIfEES1_IiSaIiEE # -- Begin function _ZN6TensorIfEC2ESt6vectorIfSaIfEES1_IiSaIiEE
	.p2align	1
	.type	_ZN6TensorIfEC2ESt6vectorIfSaIfEES1_IiSaIiEE,@function
_ZN6TensorIfEC2ESt6vectorIfSaIfEES1_IiSaIiEE: # @_ZN6TensorIfEC2ESt6vectorIfSaIfEES1_IiSaIiEE
.Lfunc_begin0:
	.cfi_startproc
	.cfi_personality 155, DW.ref.__gxx_personality_v0
	.cfi_lsda 27, .Lexception0
# %bb.0:                                # %entry
	addi	sp, sp, -32
	.cfi_def_cfa_offset 32
	sw	ra, 28(sp)                      # 4-byte Folded Spill
	sw	s0, 24(sp)                      # 4-byte Folded Spill
	sw	s1, 20(sp)                      # 4-byte Folded Spill
	sw	s2, 16(sp)                      # 4-byte Folded Spill
	sw	s3, 12(sp)                      # 4-byte Folded Spill
	sw	s4, 8(sp)                       # 4-byte Folded Spill
	sw	s5, 4(sp)                       # 4-byte Folded Spill
	sw	s6, 0(sp)                       # 4-byte Folded Spill
	.cfi_offset ra, -4
	.cfi_offset s0, -8
	.cfi_offset s1, -12
	.cfi_offset s2, -16
	.cfi_offset s3, -20
	.cfi_offset s4, -24
	.cfi_offset s5, -28
	.cfi_offset s6, -32
	.cfi_remember_state
	mv	s4, a2
	mv	s2, a1
	mv	s6, a0
	lw	a0, 0(a1)
	lw	a1, 4(a1)
	sub	s0, a1, a0
	sw	zero, 0(s6)
	sw	zero, 4(s6)
	sw	zero, 8(s6)
	beq	a1, a0, .LBB1_3
# %bb.1:                                # %cond.true.i.i.i.i
	srai	a0, s0, 2
	srli	a1, a0, 29
	bnez	a1, .LBB1_23
# %bb.2:                                # %_ZNSt15__new_allocatorIfE8allocateEjPKv.exit.i.i.i.i
	mv	a0, s0
	call	_Znwj
	mv	s1, a0
	j	.LBB1_4
.LBB1_3:
	li	s1, 0
.LBB1_4:                                # %_ZNSt12_Vector_baseIfSaIfEEC2EjRKS0_.exit.i
	add	s0, s0, s1
	sw	s1, 0(s6)
	sw	s1, 4(s6)
	sw	s0, 8(s6)
	lw	s3, 0(s2)
	lw	a0, 4(s2)
	sub	s0, a0, s3
	li	a0, 5
	blt	s0, a0, .LBB1_19
# %bb.5:                                # %if.then.i.i.i.i.i.i.i.i.i
	mv	a0, s1
	mv	a1, s3
	mv	a2, s0
	call	memmove
.LBB1_6:                                # %_ZNSt6vectorIfSaIfEEC2ERKS1_.exit
	lw	a0, 0(s4)
	lw	a1, 4(s4)
	add	s0, s0, s1
	sub	s5, a1, a0
	sw	s0, 4(s6)
	sw	zero, 12(s6)
	sw	zero, 16(s6)
	sw	zero, 20(s6)
	beq	a1, a0, .LBB1_10
# %bb.7:                                # %cond.true.i.i.i.i29
	srai	a0, s5, 2
	srli	a1, a0, 29
	bnez	a1, .LBB1_25
# %bb.8:                                # %_ZNSt15__new_allocatorIiE8allocateEjPKv.exit.i.i.i.i
.Ltmp0:
	mv	a0, s5
	call	_Znwj
.Ltmp1:
# %bb.9:
	mv	s1, a0
	j	.LBB1_11
.LBB1_10:
	li	s1, 0
.LBB1_11:                               # %_ZNSt12_Vector_baseIiSaIiEEC2EjRKS0_.exit.i
	add	s5, s5, s1
	sw	s1, 12(s6)
	sw	s1, 16(s6)
	sw	s5, 20(s6)
	lw	a1, 0(s4)
	lw	s0, 4(s4)
	sub	s0, s0, a1
	li	a0, 5
	blt	s0, a0, .LBB1_21
# %bb.12:                               # %if.then.i.i.i.i.i.i.i.i.i42
	mv	a0, s1
	mv	a2, s0
	call	memmove
.LBB1_13:                               # %_ZNSt6vectorIiSaIiEEC2ERKS1_.exit
	add	s0, s0, s1
	sw	s0, 16(s6)
	lw	a0, 0(s4)
	lw	a1, 4(s4)
	beq	a0, a1, .LBB1_16
# %bb.14:                               # %for.body.preheader
	li	a2, 1
.LBB1_15:                               # %for.body
                                        # =>This Inner Loop Header: Depth=1
	lw	a3, 0(a0)
	addi	a0, a0, 4
	mul	a2, a3, a2
	bne	a0, a1, .LBB1_15
	j	.LBB1_17
.LBB1_16:
	li	a2, 1
.LBB1_17:                               # %for.cond.cleanup
	lw	a0, 4(s2)
	sub	a1, a0, s3
	srai	a1, a1, 2
	bne	a1, a2, .LBB1_31
# %bb.18:                               # %if.end
	lw	ra, 28(sp)                      # 4-byte Folded Reload
	lw	s0, 24(sp)                      # 4-byte Folded Reload
	lw	s1, 20(sp)                      # 4-byte Folded Reload
	lw	s2, 16(sp)                      # 4-byte Folded Reload
	lw	s3, 12(sp)                      # 4-byte Folded Reload
	lw	s4, 8(sp)                       # 4-byte Folded Reload
	lw	s5, 4(sp)                       # 4-byte Folded Reload
	lw	s6, 0(sp)                       # 4-byte Folded Reload
	.cfi_restore ra
	.cfi_restore s0
	.cfi_restore s1
	.cfi_restore s2
	.cfi_restore s3
	.cfi_restore s4
	.cfi_restore s5
	.cfi_restore s6
	addi	sp, sp, 32
	.cfi_def_cfa_offset 0
	ret
.LBB1_19:                               # %if.else.i.i.i.i.i.i.i.i.i
	.cfi_restore_state
	li	a0, 4
	bne	s0, a0, .LBB1_6
# %bb.20:                               # %if.then2.i.i.i.i.i.i.i.i.i
	flw	fa5, 0(s3)
	fsw	fa5, 0(s1)
	j	.LBB1_6
.LBB1_21:                               # %if.else.i.i.i.i.i.i.i.i.i38
	li	a0, 4
	bne	s0, a0, .LBB1_13
# %bb.22:                               # %if.then2.i.i.i.i.i.i.i.i.i41
	lw	a0, 0(a1)
	sw	a0, 0(s1)
	j	.LBB1_13
.LBB1_23:                               # %if.then.i.i.i.i.i
	srli	a0, a0, 30
	beqz	a0, .LBB1_28
# %bb.24:                               # %if.then3.i.i.i.i.i
	call	_ZSt28__throw_bad_array_new_lengthv
.LBB1_25:                               # %if.then.i.i.i.i.i43
	srli	a0, a0, 30
	beqz	a0, .LBB1_29
# %bb.26:                               # %if.then3.i.i.i.i.i46
.Ltmp4:
	call	_ZSt28__throw_bad_array_new_lengthv
.Ltmp5:
# %bb.27:                               # %.noexc
.LBB1_28:                               # %if.end.i.i.i.i.i
	call	_ZSt17__throw_bad_allocv
.LBB1_29:                               # %if.end.i.i.i.i.i45
.Ltmp2:
	call	_ZSt17__throw_bad_allocv
.Ltmp3:
# %bb.30:                               # %.noexc47
.LBB1_31:                               # %if.then
	lui	a0, %hi(.L.str)
	addi	a0, a0, %lo(.L.str)
	call	printf
.Ltmp7:
	li	a0, 1
	call	exit
.Ltmp8:
# %bb.32:                               # %invoke.cont15
.LBB1_33:                               # %lpad12
.Ltmp9:
	lw	a2, 12(s6)
	mv	s0, a0
	bnez	a2, .LBB1_35
# %bb.34:
	mv	a0, s0
	j	.LBB1_37
.LBB1_35:                               # %if.then.i.i.i
	lw	a1, 20(s6)
	sub	a1, a1, a2
	mv	a0, a2
	call	_ZdlPvj
	mv	a0, s0
	j	.LBB1_37
.LBB1_36:                               # %lpad
.Ltmp6:
.LBB1_37:                               # %ehcleanup
	lw	a2, 0(s6)
	beqz	a2, .LBB1_39
# %bb.38:                               # %if.then.i.i.i60
	lw	a1, 8(s6)
	sub	a1, a1, a2
	mv	s0, a0
	mv	a0, a2
	call	_ZdlPvj
	mv	a0, s0
.LBB1_39:                               # %_ZNSt6vectorIfSaIfEED2Ev.exit
	call	_Unwind_Resume
.Lfunc_end1:
	.size	_ZN6TensorIfEC2ESt6vectorIfSaIfEES1_IiSaIiEE, .Lfunc_end1-_ZN6TensorIfEC2ESt6vectorIfSaIfEES1_IiSaIiEE
	.cfi_endproc
	.section	.gcc_except_table._ZN6TensorIfEC2ESt6vectorIfSaIfEES1_IiSaIiEE,"aG",@progbits,_ZN6TensorIfEC5ESt6vectorIfSaIfEES1_IiSaIiEE,comdat
	.p2align	2, 0x0
GCC_except_table1:
.Lexception0:
	.byte	255                             # @LPStart Encoding = omit
	.byte	255                             # @TType Encoding = omit
	.byte	3                               # Call site Encoding = udata4
	.uleb128 .Lcst_end0-.Lcst_begin0
.Lcst_begin0:
	.word	.Lfunc_begin0-.Lfunc_begin0     # >> Call Site 1 <<
	.word	.Ltmp0-.Lfunc_begin0            #   Call between .Lfunc_begin0 and .Ltmp0
	.word	0                               #     has no landing pad
	.byte	0                               #   On action: cleanup
	.word	.Ltmp0-.Lfunc_begin0            # >> Call Site 2 <<
	.word	.Ltmp1-.Ltmp0                   #   Call between .Ltmp0 and .Ltmp1
	.word	.Ltmp6-.Lfunc_begin0            #     jumps to .Ltmp6
	.byte	0                               #   On action: cleanup
	.word	.Ltmp1-.Lfunc_begin0            # >> Call Site 3 <<
	.word	.Ltmp4-.Ltmp1                   #   Call between .Ltmp1 and .Ltmp4
	.word	0                               #     has no landing pad
	.byte	0                               #   On action: cleanup
	.word	.Ltmp4-.Lfunc_begin0            # >> Call Site 4 <<
	.word	.Ltmp5-.Ltmp4                   #   Call between .Ltmp4 and .Ltmp5
	.word	.Ltmp6-.Lfunc_begin0            #     jumps to .Ltmp6
	.byte	0                               #   On action: cleanup
	.word	.Ltmp5-.Lfunc_begin0            # >> Call Site 5 <<
	.word	.Ltmp2-.Ltmp5                   #   Call between .Ltmp5 and .Ltmp2
	.word	0                               #     has no landing pad
	.byte	0                               #   On action: cleanup
	.word	.Ltmp2-.Lfunc_begin0            # >> Call Site 6 <<
	.word	.Ltmp3-.Ltmp2                   #   Call between .Ltmp2 and .Ltmp3
	.word	.Ltmp6-.Lfunc_begin0            #     jumps to .Ltmp6
	.byte	0                               #   On action: cleanup
	.word	.Ltmp7-.Lfunc_begin0            # >> Call Site 7 <<
	.word	.Ltmp8-.Ltmp7                   #   Call between .Ltmp7 and .Ltmp8
	.word	.Ltmp9-.Lfunc_begin0            #     jumps to .Ltmp9
	.byte	0                               #   On action: cleanup
	.word	.Ltmp8-.Lfunc_begin0            # >> Call Site 8 <<
	.word	.Lfunc_end1-.Ltmp8              #   Call between .Ltmp8 and .Lfunc_end1
	.word	0                               #     has no landing pad
	.byte	0                               #   On action: cleanup
.Lcst_end0:
	.p2align	2, 0x0
                                        # -- End function
	.section	.text._ZN6TensorIfEC2ESt6vectorIfSaIfEE,"axG",@progbits,_ZN6TensorIfEC5ESt6vectorIfSaIfEE,comdat
	.weak	_ZN6TensorIfEC2ESt6vectorIfSaIfEE # -- Begin function _ZN6TensorIfEC2ESt6vectorIfSaIfEE
	.p2align	1
	.type	_ZN6TensorIfEC2ESt6vectorIfSaIfEE,@function
_ZN6TensorIfEC2ESt6vectorIfSaIfEE:      # @_ZN6TensorIfEC2ESt6vectorIfSaIfEE
.Lfunc_begin1:
	.cfi_startproc
	.cfi_personality 155, DW.ref.__gxx_personality_v0
	.cfi_lsda 27, .Lexception1
# %bb.0:                                # %entry
	addi	sp, sp, -32
	.cfi_def_cfa_offset 32
	sw	ra, 28(sp)                      # 4-byte Folded Spill
	sw	s0, 24(sp)                      # 4-byte Folded Spill
	sw	s1, 20(sp)                      # 4-byte Folded Spill
	sw	s2, 16(sp)                      # 4-byte Folded Spill
	sw	s3, 12(sp)                      # 4-byte Folded Spill
	sw	s4, 8(sp)                       # 4-byte Folded Spill
	.cfi_offset ra, -4
	.cfi_offset s0, -8
	.cfi_offset s1, -12
	.cfi_offset s2, -16
	.cfi_offset s3, -20
	.cfi_offset s4, -24
	.cfi_remember_state
	mv	s3, a1
	mv	s0, a0
	lw	a0, 0(a1)
	lw	a1, 4(a1)
	sub	s2, a1, a0
	sw	zero, 0(s0)
	sw	zero, 4(s0)
	sw	zero, 8(s0)
	beq	a1, a0, .LBB2_3
# %bb.1:                                # %cond.true.i.i.i.i
	srai	a0, s2, 2
	srli	a1, a0, 29
	bnez	a1, .LBB2_10
# %bb.2:                                # %_ZNSt15__new_allocatorIfE8allocateEjPKv.exit.i.i.i.i
	mv	a0, s2
	call	_Znwj
	mv	s1, a0
	j	.LBB2_4
.LBB2_3:
	li	s1, 0
.LBB2_4:                                # %_ZNSt12_Vector_baseIfSaIfEEC2EjRKS0_.exit.i
	add	s2, s2, s1
	sw	s1, 0(s0)
	sw	s1, 4(s0)
	sw	s2, 8(s0)
	lw	s2, 0(s3)
	lw	a0, 4(s3)
	sub	s4, a0, s2
	li	a0, 5
	blt	s4, a0, .LBB2_8
# %bb.5:                                # %if.then.i.i.i.i.i.i.i.i.i
	mv	a0, s1
	mv	a1, s2
	mv	a2, s4
	call	memmove
.LBB2_6:                                # %_ZNSt6vectorIfSaIfEEC2ERKS1_.exit
	add	s1, s1, s4
	sw	s1, 4(s0)
	lw	s1, 4(s3)
	sw	zero, 12(s0)
	sw	zero, 16(s0)
	sw	zero, 20(s0)
.Ltmp10:
	li	a0, 4
	call	_Znwj
.Ltmp11:
# %bb.7:                                # %_ZNSt6vectorIiSaIiEEC2ESt16initializer_listIiERKS0_.exit
	sub	a1, s1, s2
	addi	a2, a0, 4
	srai	a1, a1, 2
	sw	a1, 0(a0)
	sw	a0, 12(s0)
	sw	a2, 16(s0)
	sw	a2, 20(s0)
	lw	ra, 28(sp)                      # 4-byte Folded Reload
	lw	s0, 24(sp)                      # 4-byte Folded Reload
	lw	s1, 20(sp)                      # 4-byte Folded Reload
	lw	s2, 16(sp)                      # 4-byte Folded Reload
	lw	s3, 12(sp)                      # 4-byte Folded Reload
	lw	s4, 8(sp)                       # 4-byte Folded Reload
	.cfi_restore ra
	.cfi_restore s0
	.cfi_restore s1
	.cfi_restore s2
	.cfi_restore s3
	.cfi_restore s4
	addi	sp, sp, 32
	.cfi_def_cfa_offset 0
	ret
.LBB2_8:                                # %if.else.i.i.i.i.i.i.i.i.i
	.cfi_restore_state
	li	a0, 4
	bne	s4, a0, .LBB2_6
# %bb.9:                                # %if.then2.i.i.i.i.i.i.i.i.i
	flw	fa5, 0(s2)
	fsw	fa5, 0(s1)
	j	.LBB2_6
.LBB2_10:                               # %if.then.i.i.i.i.i
	srli	a0, a0, 30
	beqz	a0, .LBB2_12
# %bb.11:                               # %if.then3.i.i.i.i.i
	call	_ZSt28__throw_bad_array_new_lengthv
.LBB2_12:                               # %if.end.i.i.i.i.i
	call	_ZSt17__throw_bad_allocv
.LBB2_13:                               # %lpad.i
.Ltmp12:
	lw	a2, 12(s0)
	mv	s1, a0
	bnez	a2, .LBB2_16
# %bb.14:                               # %_ZNSt6vectorIiSaIiEED2Ev.exit28
	lw	a0, 0(s0)
	bnez	a0, .LBB2_17
.LBB2_15:                               # %_ZNSt6vectorIfSaIfEED2Ev.exit
	mv	a0, s1
	call	_Unwind_Resume
.LBB2_16:                               # %if.then.i.i.i22
	lw	a1, 20(s0)
	sub	a1, a1, a2
	mv	a0, a2
	call	_ZdlPvj
	lw	a0, 0(s0)
	beqz	a0, .LBB2_15
.LBB2_17:                               # %if.then.i.i.i30
	lw	a1, 8(s0)
	sub	a1, a1, a0
	call	_ZdlPvj
	mv	a0, s1
	call	_Unwind_Resume
.Lfunc_end2:
	.size	_ZN6TensorIfEC2ESt6vectorIfSaIfEE, .Lfunc_end2-_ZN6TensorIfEC2ESt6vectorIfSaIfEE
	.cfi_endproc
	.section	.gcc_except_table._ZN6TensorIfEC2ESt6vectorIfSaIfEE,"aG",@progbits,_ZN6TensorIfEC5ESt6vectorIfSaIfEE,comdat
	.p2align	2, 0x0
GCC_except_table2:
.Lexception1:
	.byte	255                             # @LPStart Encoding = omit
	.byte	255                             # @TType Encoding = omit
	.byte	3                               # Call site Encoding = udata4
	.uleb128 .Lcst_end1-.Lcst_begin1
.Lcst_begin1:
	.word	.Lfunc_begin1-.Lfunc_begin1     # >> Call Site 1 <<
	.word	.Ltmp10-.Lfunc_begin1           #   Call between .Lfunc_begin1 and .Ltmp10
	.word	0                               #     has no landing pad
	.byte	0                               #   On action: cleanup
	.word	.Ltmp10-.Lfunc_begin1           # >> Call Site 2 <<
	.word	.Ltmp11-.Ltmp10                 #   Call between .Ltmp10 and .Ltmp11
	.word	.Ltmp12-.Lfunc_begin1           #     jumps to .Ltmp12
	.byte	0                               #   On action: cleanup
	.word	.Ltmp11-.Lfunc_begin1           # >> Call Site 3 <<
	.word	.Lfunc_end2-.Ltmp11             #   Call between .Ltmp11 and .Lfunc_end2
	.word	0                               #     has no landing pad
	.byte	0                               #   On action: cleanup
.Lcst_end1:
	.p2align	2, 0x0
                                        # -- End function
	.section	.text._ZN6TensorIfEC2ESt6vectorIS1_IfSaIfEESaIS3_EE,"axG",@progbits,_ZN6TensorIfEC5ESt6vectorIS1_IfSaIfEESaIS3_EE,comdat
	.weak	_ZN6TensorIfEC2ESt6vectorIS1_IfSaIfEESaIS3_EE # -- Begin function _ZN6TensorIfEC2ESt6vectorIS1_IfSaIfEESaIS3_EE
	.p2align	1
	.type	_ZN6TensorIfEC2ESt6vectorIS1_IfSaIfEESaIS3_EE,@function
_ZN6TensorIfEC2ESt6vectorIS1_IfSaIfEESaIS3_EE: # @_ZN6TensorIfEC2ESt6vectorIS1_IfSaIfEESaIS3_EE
.Lfunc_begin2:
	.cfi_startproc
	.cfi_personality 155, DW.ref.__gxx_personality_v0
	.cfi_lsda 27, .Lexception2
# %bb.0:                                # %entry
	addi	sp, sp, -32
	.cfi_def_cfa_offset 32
	sw	ra, 28(sp)                      # 4-byte Folded Spill
	sw	s0, 24(sp)                      # 4-byte Folded Spill
	sw	s1, 20(sp)                      # 4-byte Folded Spill
	sw	s2, 16(sp)                      # 4-byte Folded Spill
	sw	s3, 12(sp)                      # 4-byte Folded Spill
	sw	s4, 8(sp)                       # 4-byte Folded Spill
	sw	s5, 4(sp)                       # 4-byte Folded Spill
	sw	s6, 0(sp)                       # 4-byte Folded Spill
	.cfi_offset ra, -4
	.cfi_offset s0, -8
	.cfi_offset s1, -12
	.cfi_offset s2, -16
	.cfi_offset s3, -20
	.cfi_offset s4, -24
	.cfi_offset s5, -28
	.cfi_offset s6, -32
	.cfi_remember_state
	mv	s5, a1
	mv	s2, a0
	sw	zero, 16(a0)
	sw	zero, 20(a0)
	sw	zero, 0(a0)
	sw	zero, 4(a0)
	sw	zero, 8(a0)
	sw	zero, 12(a0)
	lw	s0, 0(a1)
	lw	s3, 4(a1)
	lw	s4, 0(s0)
	lw	s1, 4(s0)
.Ltmp13:
	li	a0, 8
	call	_Znwj
.Ltmp14:
# %bb.1:                                # %_ZNSt6vectorIiSaIiEEC2ESt16initializer_listIiERKS0_.exit
	sub	a2, s1, s4
	sub	a3, s3, s0
	lui	a4, 699051
	lw	a1, 0(s5)
	lw	a5, 4(s5)
	srai	a2, a2, 2
	srai	a3, a3, 2
	addi	a4, a4, -1365
	mul	a3, a3, a4
	sw	a3, 0(a0)
	sw	a2, 4(a0)
	addi	a3, a0, 8
	sub	a5, a5, a1
	srai	a5, a5, 2
	mul	a2, a5, a4
	li	a4, 2
	sw	a0, 12(s2)
	sw	a3, 16(s2)
	sw	a3, 20(s2)
	bltu	a2, a4, .LBB3_5
# %bb.2:                                # %for.body.lr.ph
	lw	a3, 0(a1)
	lw	a4, 4(a1)
	addi	a0, a2, -1
	sub	a2, a4, a3
	addi	a1, a1, 16
.LBB3_3:                                # %for.body
                                        # =>This Inner Loop Header: Depth=1
	lw	a3, -4(a1)
	lw	a4, 0(a1)
	sub	a4, a4, a3
	bne	a4, a2, .LBB3_13
# %bb.4:                                # %for.cond
                                        #   in Loop: Header=BB3_3 Depth=1
	addi	a0, a0, -1
	addi	a1, a1, 12
	bnez	a0, .LBB3_3
.LBB3_5:                                # %for.cond20.preheader
	lw	a0, 0(s5)
	lw	a1, 4(s5)
	beq	a1, a0, .LBB3_12
# %bb.6:                                # %for.cond25.preheader.preheader
	li	s4, 0
	lui	a0, 699051
	addi	s3, a0, -1365
	j	.LBB3_8
.LBB3_7:                                # %for.cond.cleanup29
                                        #   in Loop: Header=BB3_8 Depth=1
	lw	a0, 0(s5)
	lw	a1, 4(s5)
	addi	s4, s4, 1
	sub	a1, a1, a0
	srai	a1, a1, 2
	mul	a0, a1, s3
	bgeu	s4, a0, .LBB3_12
.LBB3_8:                                # %for.cond25.preheader
                                        # =>This Loop Header: Depth=1
                                        #     Child Loop BB3_10 Depth 2
	lw	a0, 0(s5)
	lw	a1, 0(a0)
	lw	a2, 4(a0)
	beq	a2, a1, .LBB3_7
# %bb.9:                                # %for.body30.preheader
                                        #   in Loop: Header=BB3_8 Depth=1
	li	s0, 0
	li	s1, 0
	slli	a1, s4, 2
	slli	a2, s4, 4
	sub	s6, a2, a1
.LBB3_10:                               # %for.body30
                                        #   Parent Loop BB3_8 Depth=1
                                        # =>  This Inner Loop Header: Depth=2
	add	a0, a0, s6
	lw	a1, 0(a0)
	add	a1, a1, s0
.Ltmp19:
	mv	a0, s2
	call	_ZNSt6vectorIfSaIfEE9push_backERKf
.Ltmp20:
# %bb.11:                               # %for.inc36
                                        #   in Loop: Header=BB3_10 Depth=2
	lw	a0, 0(s5)
	lw	a1, 0(a0)
	lw	a2, 4(a0)
	addi	s1, s1, 1
	sub	a2, a2, a1
	srai	a2, a2, 2
	addi	s0, s0, 4
	bltu	s1, a2, .LBB3_10
	j	.LBB3_7
.LBB3_12:                               # %for.cond.cleanup23
	lw	ra, 28(sp)                      # 4-byte Folded Reload
	lw	s0, 24(sp)                      # 4-byte Folded Reload
	lw	s1, 20(sp)                      # 4-byte Folded Reload
	lw	s2, 16(sp)                      # 4-byte Folded Reload
	lw	s3, 12(sp)                      # 4-byte Folded Reload
	lw	s4, 8(sp)                       # 4-byte Folded Reload
	lw	s5, 4(sp)                       # 4-byte Folded Reload
	lw	s6, 0(sp)                       # 4-byte Folded Reload
	.cfi_restore ra
	.cfi_restore s0
	.cfi_restore s1
	.cfi_restore s2
	.cfi_restore s3
	.cfi_restore s4
	.cfi_restore s5
	.cfi_restore s6
	addi	sp, sp, 32
	.cfi_def_cfa_offset 0
	ret
.LBB3_13:                               # %if.then
	.cfi_restore_state
	lui	a0, %hi(.L.str.1)
	addi	a0, a0, %lo(.L.str.1)
	call	printf
.Ltmp16:
	li	a0, 1
	call	exit
.Ltmp17:
# %bb.14:                               # %invoke.cont18
.LBB3_15:                               # %lpad.i
.Ltmp15:
	j	.LBB3_18
.LBB3_16:                               # %lpad15
.Ltmp18:
	j	.LBB3_18
.LBB3_17:                               # %lpad34
.Ltmp21:
.LBB3_18:                               # %ehcleanup
	mv	s1, a0
	lw	a0, 12(s2)
	bnez	a0, .LBB3_21
# %bb.19:                               # %_ZNSt6vectorIiSaIiEED2Ev.exit101
	lw	a0, 0(s2)
	bnez	a0, .LBB3_22
.LBB3_20:                               # %_ZNSt6vectorIfSaIfEED2Ev.exit
	mv	a0, s1
	call	_Unwind_Resume
.LBB3_21:                               # %if.then.i.i.i95
	lw	a1, 20(s2)
	sub	a1, a1, a0
	call	_ZdlPvj
	lw	a0, 0(s2)
	beqz	a0, .LBB3_20
.LBB3_22:                               # %if.then.i.i.i103
	lw	a1, 8(s2)
	sub	a1, a1, a0
	call	_ZdlPvj
	mv	a0, s1
	call	_Unwind_Resume
.Lfunc_end3:
	.size	_ZN6TensorIfEC2ESt6vectorIS1_IfSaIfEESaIS3_EE, .Lfunc_end3-_ZN6TensorIfEC2ESt6vectorIS1_IfSaIfEESaIS3_EE
	.cfi_endproc
	.section	.gcc_except_table._ZN6TensorIfEC2ESt6vectorIS1_IfSaIfEESaIS3_EE,"aG",@progbits,_ZN6TensorIfEC5ESt6vectorIS1_IfSaIfEESaIS3_EE,comdat
	.p2align	2, 0x0
GCC_except_table3:
.Lexception2:
	.byte	255                             # @LPStart Encoding = omit
	.byte	255                             # @TType Encoding = omit
	.byte	3                               # Call site Encoding = udata4
	.uleb128 .Lcst_end2-.Lcst_begin2
.Lcst_begin2:
	.word	.Ltmp13-.Lfunc_begin2           # >> Call Site 1 <<
	.word	.Ltmp14-.Ltmp13                 #   Call between .Ltmp13 and .Ltmp14
	.word	.Ltmp15-.Lfunc_begin2           #     jumps to .Ltmp15
	.byte	0                               #   On action: cleanup
	.word	.Ltmp19-.Lfunc_begin2           # >> Call Site 2 <<
	.word	.Ltmp20-.Ltmp19                 #   Call between .Ltmp19 and .Ltmp20
	.word	.Ltmp21-.Lfunc_begin2           #     jumps to .Ltmp21
	.byte	0                               #   On action: cleanup
	.word	.Ltmp16-.Lfunc_begin2           # >> Call Site 3 <<
	.word	.Ltmp17-.Ltmp16                 #   Call between .Ltmp16 and .Ltmp17
	.word	.Ltmp18-.Lfunc_begin2           #     jumps to .Ltmp18
	.byte	0                               #   On action: cleanup
	.word	.Ltmp17-.Lfunc_begin2           # >> Call Site 4 <<
	.word	.Lfunc_end3-.Ltmp17             #   Call between .Ltmp17 and .Lfunc_end3
	.word	0                               #     has no landing pad
	.byte	0                               #   On action: cleanup
.Lcst_end2:
	.p2align	2, 0x0
                                        # -- End function
	.section	.text._ZNSt6vectorIfSaIfEE9push_backERKf,"axG",@progbits,_ZNSt6vectorIfSaIfEE9push_backERKf,comdat
	.weak	_ZNSt6vectorIfSaIfEE9push_backERKf # -- Begin function _ZNSt6vectorIfSaIfEE9push_backERKf
	.p2align	1
	.type	_ZNSt6vectorIfSaIfEE9push_backERKf,@function
_ZNSt6vectorIfSaIfEE9push_backERKf:     # @_ZNSt6vectorIfSaIfEE9push_backERKf
	.cfi_startproc
# %bb.0:                                # %entry
	addi	sp, sp, -32
	.cfi_def_cfa_offset 32
	sw	ra, 28(sp)                      # 4-byte Folded Spill
	sw	s0, 24(sp)                      # 4-byte Folded Spill
	sw	s1, 20(sp)                      # 4-byte Folded Spill
	sw	s2, 16(sp)                      # 4-byte Folded Spill
	sw	s3, 12(sp)                      # 4-byte Folded Spill
	sw	s4, 8(sp)                       # 4-byte Folded Spill
	sw	s5, 4(sp)                       # 4-byte Folded Spill
	sw	s6, 0(sp)                       # 4-byte Folded Spill
	.cfi_offset ra, -4
	.cfi_offset s0, -8
	.cfi_offset s1, -12
	.cfi_offset s2, -16
	.cfi_offset s3, -20
	.cfi_offset s4, -24
	.cfi_offset s5, -28
	.cfi_offset s6, -32
	.cfi_remember_state
	lw	a2, 4(a0)
	lw	s4, 8(a0)
	beq	a2, s4, .LBB4_2
# %bb.1:                                # %if.then
	flw	fa5, 0(a1)
	addi	a1, a2, 4
	fsw	fa5, 0(a2)
	sw	a1, 4(a0)
	j	.LBB4_12
.LBB4_2:                                # %if.else
	lw	s3, 0(a0)
	lui	a3, 524288
	sub	s1, a2, s3
	addi	a3, a3, -4
	beq	s1, a3, .LBB4_13
# %bb.3:                                # %_ZNKSt6vectorIfSaIfEE12_M_check_lenEjPKc.exit.i
	srai	a3, s1, 2
	lui	s2, 131072
	seqz	a2, a3
	add	a2, a2, a3
	add	a3, a3, a2
	addi	s2, s2, -1
	mv	a4, a3
	bltu	a3, s2, .LBB4_5
# %bb.4:                                # %_ZNKSt6vectorIfSaIfEE12_M_check_lenEjPKc.exit.i
	mv	a4, s2
.LBB4_5:                                # %_ZNKSt6vectorIfSaIfEE12_M_check_lenEjPKc.exit.i
	mv	s0, a1
	mv	s5, a0
	bltu	a3, a2, .LBB4_7
# %bb.6:                                # %_ZNKSt6vectorIfSaIfEE12_M_check_lenEjPKc.exit.i
	mv	s2, a4
.LBB4_7:                                # %_ZNKSt6vectorIfSaIfEE12_M_check_lenEjPKc.exit.i
	slli	s2, s2, 2
	mv	a0, s2
	call	_Znwj
	flw	fa5, 0(s0)
	mv	s0, a0
	add	s6, a0, s1
	fsw	fa5, 0(s6)
	blez	s1, .LBB4_9
# %bb.8:                                # %if.then.i.i.i.i
	mv	a0, s0
	mv	a1, s3
	mv	a2, s1
	call	memcpy
.LBB4_9:                                # %_ZNSt6vectorIfSaIfEE11_S_relocateEPfS2_S2_RS0_.exit.i
	beqz	s3, .LBB4_11
# %bb.10:                               # %if.then.i36.i
	sub	a1, s4, s3
	mv	a0, s3
	call	_ZdlPvj
.LBB4_11:                               # %_ZNSt6vectorIfSaIfEE17_M_realloc_appendIJRKfEEEvDpOT_.exit
	addi	s6, s6, 4
	add	s2, s2, s0
	sw	s0, 0(s5)
	sw	s6, 4(s5)
	sw	s2, 8(s5)
.LBB4_12:                               # %if.end
	lw	ra, 28(sp)                      # 4-byte Folded Reload
	lw	s0, 24(sp)                      # 4-byte Folded Reload
	lw	s1, 20(sp)                      # 4-byte Folded Reload
	lw	s2, 16(sp)                      # 4-byte Folded Reload
	lw	s3, 12(sp)                      # 4-byte Folded Reload
	lw	s4, 8(sp)                       # 4-byte Folded Reload
	lw	s5, 4(sp)                       # 4-byte Folded Reload
	lw	s6, 0(sp)                       # 4-byte Folded Reload
	.cfi_restore ra
	.cfi_restore s0
	.cfi_restore s1
	.cfi_restore s2
	.cfi_restore s3
	.cfi_restore s4
	.cfi_restore s5
	.cfi_restore s6
	addi	sp, sp, 32
	.cfi_def_cfa_offset 0
	ret
.LBB4_13:                               # %if.then.i.i
	.cfi_restore_state
	lui	a0, %hi(.L.str.28)
	addi	a0, a0, %lo(.L.str.28)
	call	_ZSt20__throw_length_errorPKc
.Lfunc_end4:
	.size	_ZNSt6vectorIfSaIfEE9push_backERKf, .Lfunc_end4-_ZNSt6vectorIfSaIfEE9push_backERKf
	.cfi_endproc
                                        # -- End function
	.section	.text._ZN6TensorIfEC2ERKS0_,"axG",@progbits,_ZN6TensorIfEC5ERKS0_,comdat
	.weak	_ZN6TensorIfEC2ERKS0_           # -- Begin function _ZN6TensorIfEC2ERKS0_
	.p2align	1
	.type	_ZN6TensorIfEC2ERKS0_,@function
_ZN6TensorIfEC2ERKS0_:                  # @_ZN6TensorIfEC2ERKS0_
.Lfunc_begin3:
	.cfi_startproc
	.cfi_personality 155, DW.ref.__gxx_personality_v0
	.cfi_lsda 27, .Lexception3
# %bb.0:                                # %entry
	addi	sp, sp, -16
	.cfi_def_cfa_offset 16
	sw	ra, 12(sp)                      # 4-byte Folded Spill
	sw	s0, 8(sp)                       # 4-byte Folded Spill
	sw	s1, 4(sp)                       # 4-byte Folded Spill
	sw	s2, 0(sp)                       # 4-byte Folded Spill
	.cfi_offset ra, -4
	.cfi_offset s0, -8
	.cfi_offset s1, -12
	.cfi_offset s2, -16
	.cfi_remember_state
	mv	s1, a1
	mv	s0, a0
	addi	s2, a0, 12
	sw	zero, 16(a0)
	sw	zero, 20(a0)
	sw	zero, 0(a0)
	sw	zero, 4(a0)
	sw	zero, 8(a0)
	sw	zero, 12(a0)
.Ltmp22:
	call	_ZNSt6vectorIfSaIfEEaSERKS1_
.Ltmp23:
# %bb.1:                                # %invoke.cont
	addi	a1, s1, 12
.Ltmp24:
	mv	a0, s2
	call	_ZNSt6vectorIiSaIiEEaSERKS1_
.Ltmp25:
# %bb.2:                                # %invoke.cont6
	lw	ra, 12(sp)                      # 4-byte Folded Reload
	lw	s0, 8(sp)                       # 4-byte Folded Reload
	lw	s1, 4(sp)                       # 4-byte Folded Reload
	lw	s2, 0(sp)                       # 4-byte Folded Reload
	.cfi_restore ra
	.cfi_restore s0
	.cfi_restore s1
	.cfi_restore s2
	addi	sp, sp, 16
	.cfi_def_cfa_offset 0
	ret
.LBB5_3:                                # %lpad
	.cfi_restore_state
.Ltmp26:
	lw	a2, 0(s2)
	mv	s1, a0
	bnez	a2, .LBB5_6
# %bb.4:                                # %_ZNSt6vectorIiSaIiEED2Ev.exit
	lw	a0, 0(s0)
	bnez	a0, .LBB5_7
.LBB5_5:                                # %_ZNSt6vectorIfSaIfEED2Ev.exit
	mv	a0, s1
	call	_Unwind_Resume
.LBB5_6:                                # %if.then.i.i.i
	lw	a1, 20(s0)
	sub	a1, a1, a2
	mv	a0, a2
	call	_ZdlPvj
	lw	a0, 0(s0)
	beqz	a0, .LBB5_5
.LBB5_7:                                # %if.then.i.i.i13
	lw	a1, 8(s0)
	sub	a1, a1, a0
	call	_ZdlPvj
	mv	a0, s1
	call	_Unwind_Resume
.Lfunc_end5:
	.size	_ZN6TensorIfEC2ERKS0_, .Lfunc_end5-_ZN6TensorIfEC2ERKS0_
	.cfi_endproc
	.section	.gcc_except_table._ZN6TensorIfEC2ERKS0_,"aG",@progbits,_ZN6TensorIfEC5ERKS0_,comdat
	.p2align	2, 0x0
GCC_except_table5:
.Lexception3:
	.byte	255                             # @LPStart Encoding = omit
	.byte	255                             # @TType Encoding = omit
	.byte	3                               # Call site Encoding = udata4
	.uleb128 .Lcst_end3-.Lcst_begin3
.Lcst_begin3:
	.word	.Ltmp22-.Lfunc_begin3           # >> Call Site 1 <<
	.word	.Ltmp25-.Ltmp22                 #   Call between .Ltmp22 and .Ltmp25
	.word	.Ltmp26-.Lfunc_begin3           #     jumps to .Ltmp26
	.byte	0                               #   On action: cleanup
	.word	.Ltmp25-.Lfunc_begin3           # >> Call Site 2 <<
	.word	.Lfunc_end5-.Ltmp25             #   Call between .Ltmp25 and .Lfunc_end5
	.word	0                               #     has no landing pad
	.byte	0                               #   On action: cleanup
.Lcst_end3:
	.p2align	2, 0x0
                                        # -- End function
	.section	.text._ZNSt6vectorIfSaIfEEaSERKS1_,"axG",@progbits,_ZNSt6vectorIfSaIfEEaSERKS1_,comdat
	.weak	_ZNSt6vectorIfSaIfEEaSERKS1_    # -- Begin function _ZNSt6vectorIfSaIfEEaSERKS1_
	.p2align	1
	.type	_ZNSt6vectorIfSaIfEEaSERKS1_,@function
_ZNSt6vectorIfSaIfEEaSERKS1_:           # @_ZNSt6vectorIfSaIfEEaSERKS1_
	.cfi_startproc
# %bb.0:                                # %entry
	addi	sp, sp, -32
	.cfi_def_cfa_offset 32
	sw	ra, 28(sp)                      # 4-byte Folded Spill
	sw	s0, 24(sp)                      # 4-byte Folded Spill
	sw	s1, 20(sp)                      # 4-byte Folded Spill
	sw	s2, 16(sp)                      # 4-byte Folded Spill
	sw	s3, 12(sp)                      # 4-byte Folded Spill
	sw	s4, 8(sp)                       # 4-byte Folded Spill
	sw	s5, 4(sp)                       # 4-byte Folded Spill
	.cfi_offset ra, -4
	.cfi_offset s0, -8
	.cfi_offset s1, -12
	.cfi_offset s2, -16
	.cfi_offset s3, -20
	.cfi_offset s4, -24
	.cfi_offset s5, -28
	.cfi_remember_state
	mv	s0, a0
	beq	a1, a0, .LBB6_18
# %bb.1:                                # %if.then
	lw	s3, 0(a1)
	lw	a0, 4(a1)
	lw	s2, 0(s0)
	lw	a2, 8(s0)
	sub	s1, a0, s3
	sub	s4, a2, s2
	bgeu	s4, s1, .LBB6_8
# %bb.2:                                # %cond.true.i.i
	srai	a0, s1, 2
	srli	a1, a0, 29
	bnez	a1, .LBB6_19
# %bb.3:                                # %_ZNSt15__new_allocatorIfE8allocateEjPKv.exit.i.i
	mv	a0, s1
	call	_Znwj
	li	a1, 5
	mv	s5, a0
	blt	s1, a1, .LBB6_21
# %bb.4:                                # %if.then.i.i.i.i.i.i.i.i.i
	mv	a0, s5
	mv	a1, s3
	mv	a2, s1
	call	memcpy
.LBB6_5:                                # %_ZNSt6vectorIfSaIfEE20_M_allocate_and_copyIN9__gnu_cxx17__normal_iteratorIPKfS1_EEEEPfjT_S9_.exit
	beqz	s2, .LBB6_7
# %bb.6:                                # %if.then.i
	mv	a0, s2
	mv	a1, s4
	call	_ZdlPvj
.LBB6_7:                                # %_ZNSt12_Vector_baseIfSaIfEE13_M_deallocateEPfj.exit
	add	a0, s5, s1
	sw	s5, 0(s0)
	sw	a0, 8(s0)
	j	.LBB6_17
.LBB6_8:                                # %if.else
	lw	a0, 4(s0)
	sub	a2, a0, s2
	bgeu	a2, s1, .LBB6_14
# %bb.9:                                # %if.else61
	mv	s4, a1
	li	a0, 5
	blt	a2, a0, .LBB6_23
# %bb.10:                               # %if.then.i.i.i.i.i129
	mv	a0, s2
	mv	a1, s3
	call	memmove
.LBB6_11:                               # %_ZSt4copyIPfS0_ET0_T_S2_S1_.exit
	lw	a1, 0(s0)
	lw	a0, 4(s0)
	lw	a2, 0(s4)
	lw	a3, 4(s4)
	sub	a1, a0, a1
	add	a1, a1, a2
	sub	a2, a3, a1
	li	a3, 5
	bge	a2, a3, .LBB6_16
# %bb.12:                               # %if.else.i.i.i.i.i.i.i.i
	li	a3, 4
	bne	a2, a3, .LBB6_17
# %bb.13:                               # %if.then2.i.i.i.i.i.i.i.i
	flw	fa5, 0(a1)
	fsw	fa5, 0(a0)
	j	.LBB6_17
.LBB6_14:                               # %if.then29
	li	a0, 5
	blt	s1, a0, .LBB6_25
# %bb.15:                               # %if.then.i.i.i.i.i
	mv	a0, s2
	mv	a1, s3
	mv	a2, s1
.LBB6_16:                               # %if.end81
	call	memmove
.LBB6_17:                               # %if.end81
	lw	a0, 0(s0)
	add	a0, a0, s1
	sw	a0, 4(s0)
.LBB6_18:                               # %if.end87
	mv	a0, s0
	lw	ra, 28(sp)                      # 4-byte Folded Reload
	lw	s0, 24(sp)                      # 4-byte Folded Reload
	lw	s1, 20(sp)                      # 4-byte Folded Reload
	lw	s2, 16(sp)                      # 4-byte Folded Reload
	lw	s3, 12(sp)                      # 4-byte Folded Reload
	lw	s4, 8(sp)                       # 4-byte Folded Reload
	lw	s5, 4(sp)                       # 4-byte Folded Reload
	.cfi_restore ra
	.cfi_restore s0
	.cfi_restore s1
	.cfi_restore s2
	.cfi_restore s3
	.cfi_restore s4
	.cfi_restore s5
	addi	sp, sp, 32
	.cfi_def_cfa_offset 0
	ret
.LBB6_19:                               # %if.then.i.i.i
	.cfi_restore_state
	srli	a0, a0, 30
	beqz	a0, .LBB6_27
# %bb.20:                               # %if.then3.i.i.i
	call	_ZSt28__throw_bad_array_new_lengthv
.LBB6_21:                               # %if.else.i.i.i.i.i.i.i.i.i
	li	a0, 4
	bne	s1, a0, .LBB6_5
# %bb.22:                               # %if.then2.i.i.i.i.i.i.i.i.i
	flw	fa5, 0(s3)
	fsw	fa5, 0(s5)
	j	.LBB6_5
.LBB6_23:                               # %if.else.i.i.i.i.i125
	li	a0, 4
	bne	a2, a0, .LBB6_11
# %bb.24:                               # %if.then2.i.i.i.i.i128
	flw	fa5, 0(s3)
	fsw	fa5, 0(s2)
	j	.LBB6_11
.LBB6_25:                               # %if.else.i.i.i.i.i
	li	a0, 4
	bne	s1, a0, .LBB6_17
# %bb.26:                               # %if.then2.i.i.i.i.i
	flw	fa5, 0(s3)
	fsw	fa5, 0(s2)
	j	.LBB6_17
.LBB6_27:                               # %if.end.i.i.i
	call	_ZSt17__throw_bad_allocv
.Lfunc_end6:
	.size	_ZNSt6vectorIfSaIfEEaSERKS1_, .Lfunc_end6-_ZNSt6vectorIfSaIfEEaSERKS1_
	.cfi_endproc
                                        # -- End function
	.section	.text._ZNSt6vectorIiSaIiEEaSERKS1_,"axG",@progbits,_ZNSt6vectorIiSaIiEEaSERKS1_,comdat
	.weak	_ZNSt6vectorIiSaIiEEaSERKS1_    # -- Begin function _ZNSt6vectorIiSaIiEEaSERKS1_
	.p2align	1
	.type	_ZNSt6vectorIiSaIiEEaSERKS1_,@function
_ZNSt6vectorIiSaIiEEaSERKS1_:           # @_ZNSt6vectorIiSaIiEEaSERKS1_
	.cfi_startproc
# %bb.0:                                # %entry
	addi	sp, sp, -32
	.cfi_def_cfa_offset 32
	sw	ra, 28(sp)                      # 4-byte Folded Spill
	sw	s0, 24(sp)                      # 4-byte Folded Spill
	sw	s1, 20(sp)                      # 4-byte Folded Spill
	sw	s2, 16(sp)                      # 4-byte Folded Spill
	sw	s3, 12(sp)                      # 4-byte Folded Spill
	sw	s4, 8(sp)                       # 4-byte Folded Spill
	sw	s5, 4(sp)                       # 4-byte Folded Spill
	.cfi_offset ra, -4
	.cfi_offset s0, -8
	.cfi_offset s1, -12
	.cfi_offset s2, -16
	.cfi_offset s3, -20
	.cfi_offset s4, -24
	.cfi_offset s5, -28
	.cfi_remember_state
	mv	s0, a0
	beq	a1, a0, .LBB7_18
# %bb.1:                                # %if.then
	lw	s3, 0(a1)
	lw	a0, 4(a1)
	lw	s2, 0(s0)
	lw	a2, 8(s0)
	sub	s1, a0, s3
	sub	s4, a2, s2
	bgeu	s4, s1, .LBB7_8
# %bb.2:                                # %cond.true.i.i
	srai	a0, s1, 2
	srli	a1, a0, 29
	bnez	a1, .LBB7_19
# %bb.3:                                # %_ZNSt15__new_allocatorIiE8allocateEjPKv.exit.i.i
	mv	a0, s1
	call	_Znwj
	li	a1, 5
	mv	s5, a0
	blt	s1, a1, .LBB7_21
# %bb.4:                                # %if.then.i.i.i.i.i.i.i.i.i
	mv	a0, s5
	mv	a1, s3
	mv	a2, s1
	call	memcpy
.LBB7_5:                                # %_ZNSt6vectorIiSaIiEE20_M_allocate_and_copyIN9__gnu_cxx17__normal_iteratorIPKiS1_EEEEPijT_S9_.exit
	beqz	s2, .LBB7_7
# %bb.6:                                # %if.then.i
	mv	a0, s2
	mv	a1, s4
	call	_ZdlPvj
.LBB7_7:                                # %_ZNSt12_Vector_baseIiSaIiEE13_M_deallocateEPij.exit
	add	a0, s5, s1
	sw	s5, 0(s0)
	sw	a0, 8(s0)
	j	.LBB7_17
.LBB7_8:                                # %if.else
	lw	a0, 4(s0)
	sub	a2, a0, s2
	bgeu	a2, s1, .LBB7_14
# %bb.9:                                # %if.else61
	mv	s4, a1
	li	a0, 5
	blt	a2, a0, .LBB7_23
# %bb.10:                               # %if.then.i.i.i.i.i129
	mv	a0, s2
	mv	a1, s3
	call	memmove
.LBB7_11:                               # %_ZSt4copyIPiS0_ET0_T_S2_S1_.exit
	lw	a1, 0(s0)
	lw	a0, 4(s0)
	lw	a2, 0(s4)
	lw	a3, 4(s4)
	sub	a1, a0, a1
	add	a1, a1, a2
	sub	a2, a3, a1
	li	a3, 5
	bge	a2, a3, .LBB7_16
# %bb.12:                               # %if.else.i.i.i.i.i.i.i.i
	li	a3, 4
	bne	a2, a3, .LBB7_17
# %bb.13:                               # %if.then2.i.i.i.i.i.i.i.i
	lw	a1, 0(a1)
	sw	a1, 0(a0)
	j	.LBB7_17
.LBB7_14:                               # %if.then29
	li	a0, 5
	blt	s1, a0, .LBB7_25
# %bb.15:                               # %if.then.i.i.i.i.i
	mv	a0, s2
	mv	a1, s3
	mv	a2, s1
.LBB7_16:                               # %if.end81
	call	memmove
.LBB7_17:                               # %if.end81
	lw	a0, 0(s0)
	add	a0, a0, s1
	sw	a0, 4(s0)
.LBB7_18:                               # %if.end87
	mv	a0, s0
	lw	ra, 28(sp)                      # 4-byte Folded Reload
	lw	s0, 24(sp)                      # 4-byte Folded Reload
	lw	s1, 20(sp)                      # 4-byte Folded Reload
	lw	s2, 16(sp)                      # 4-byte Folded Reload
	lw	s3, 12(sp)                      # 4-byte Folded Reload
	lw	s4, 8(sp)                       # 4-byte Folded Reload
	lw	s5, 4(sp)                       # 4-byte Folded Reload
	.cfi_restore ra
	.cfi_restore s0
	.cfi_restore s1
	.cfi_restore s2
	.cfi_restore s3
	.cfi_restore s4
	.cfi_restore s5
	addi	sp, sp, 32
	.cfi_def_cfa_offset 0
	ret
.LBB7_19:                               # %if.then.i.i.i
	.cfi_restore_state
	srli	a0, a0, 30
	beqz	a0, .LBB7_27
# %bb.20:                               # %if.then3.i.i.i
	call	_ZSt28__throw_bad_array_new_lengthv
.LBB7_21:                               # %if.else.i.i.i.i.i.i.i.i.i
	li	a0, 4
	bne	s1, a0, .LBB7_5
# %bb.22:                               # %if.then2.i.i.i.i.i.i.i.i.i
	lw	a0, 0(s3)
	sw	a0, 0(s5)
	j	.LBB7_5
.LBB7_23:                               # %if.else.i.i.i.i.i125
	li	a0, 4
	bne	a2, a0, .LBB7_11
# %bb.24:                               # %if.then2.i.i.i.i.i128
	lw	a0, 0(s3)
	sw	a0, 0(s2)
	j	.LBB7_11
.LBB7_25:                               # %if.else.i.i.i.i.i
	li	a0, 4
	bne	s1, a0, .LBB7_17
# %bb.26:                               # %if.then2.i.i.i.i.i
	lw	a0, 0(s3)
	sw	a0, 0(s2)
	j	.LBB7_17
.LBB7_27:                               # %if.end.i.i.i
	call	_ZSt17__throw_bad_allocv
.Lfunc_end7:
	.size	_ZNSt6vectorIiSaIiEEaSERKS1_, .Lfunc_end7-_ZNSt6vectorIiSaIiEEaSERKS1_
	.cfi_endproc
                                        # -- End function
	.section	.text._ZN6TensorIfE5zerosESt6vectorIiSaIiEE,"axG",@progbits,_ZN6TensorIfE5zerosESt6vectorIiSaIiEE,comdat
	.weak	_ZN6TensorIfE5zerosESt6vectorIiSaIiEE # -- Begin function _ZN6TensorIfE5zerosESt6vectorIiSaIiEE
	.p2align	1
	.type	_ZN6TensorIfE5zerosESt6vectorIiSaIiEE,@function
_ZN6TensorIfE5zerosESt6vectorIiSaIiEE:  # @_ZN6TensorIfE5zerosESt6vectorIiSaIiEE
.Lfunc_begin4:
	.cfi_startproc
	.cfi_personality 155, DW.ref.__gxx_personality_v0
	.cfi_lsda 27, .Lexception4
# %bb.0:                                # %entry
	addi	sp, sp, -64
	.cfi_def_cfa_offset 64
	sw	ra, 60(sp)                      # 4-byte Folded Spill
	sw	s0, 56(sp)                      # 4-byte Folded Spill
	sw	s1, 52(sp)                      # 4-byte Folded Spill
	sw	s2, 48(sp)                      # 4-byte Folded Spill
	sw	s3, 44(sp)                      # 4-byte Folded Spill
	sw	s4, 40(sp)                      # 4-byte Folded Spill
	sw	s5, 36(sp)                      # 4-byte Folded Spill
	.cfi_offset ra, -4
	.cfi_offset s0, -8
	.cfi_offset s1, -12
	.cfi_offset s2, -16
	.cfi_offset s3, -20
	.cfi_offset s4, -24
	.cfi_offset s5, -28
	.cfi_remember_state
	lw	s3, 0(a1)
	lw	s0, 4(a1)
	mv	s2, a0
	li	s1, 1
	beq	s3, s0, .LBB8_3
# %bb.1:                                # %for.body.preheader
	mv	a0, s3
.LBB8_2:                                # %for.body
                                        # =>This Inner Loop Header: Depth=1
	lw	a1, 0(a0)
	addi	a0, a0, 4
	mul	s1, a1, s1
	bne	a0, s0, .LBB8_2
.LBB8_3:                                # %for.cond.cleanup
	srli	a0, s1, 29
	bnez	a0, .LBB8_29
# %bb.4:                                # %_ZNSt6vectorIfSaIfEE17_S_check_init_lenEjRKS0_.exit.i
	sw	zero, 24(sp)
	sw	zero, 28(sp)
	sw	zero, 32(sp)
	slli	s4, s1, 2
	beqz	s1, .LBB8_6
# %bb.5:                                # %_ZNSt15__new_allocatorIfE8allocateEjPKv.exit.i.i.i.i
	mv	a0, s4
	call	_Znwj
	j	.LBB8_7
.LBB8_6:
	li	a0, 0
.LBB8_7:                                # %_ZNSt12_Vector_baseIfSaIfEEC2EjRKS0_.exit.i
	add	s5, a0, s4
	sw	a0, 24(sp)
	sw	a0, 28(sp)
	sw	s5, 32(sp)
	beqz	s1, .LBB8_9
# %bb.8:                                # %for.body.i.i.i.i.i.i.i.i.i.preheader
	li	a1, 0
	mv	a2, s4
	call	memset
	j	.LBB8_10
.LBB8_9:
	mv	s5, a0
.LBB8_10:                               # %_ZNSt6vectorIfSaIfEEC2EjRKfRKS0_.exit
	sw	s5, 28(sp)
	sub	s1, s0, s3
	sw	zero, 12(sp)
	sw	zero, 16(sp)
	sw	zero, 20(sp)
	beq	s0, s3, .LBB8_13
# %bb.11:                               # %cond.true.i.i.i.i
	srai	a0, s1, 2
	srli	a1, a0, 29
	bnez	a1, .LBB8_24
# %bb.12:                               # %_ZNSt15__new_allocatorIiE8allocateEjPKv.exit.i.i.i.i
.Ltmp27:
	mv	a0, s1
	call	_Znwj
.Ltmp28:
	j	.LBB8_14
.LBB8_13:
	li	a0, 0
.LBB8_14:                               # %_ZNSt12_Vector_baseIiSaIiEEC2EjRKS0_.exit.i
	add	s0, a0, s1
	li	a1, 5
	sw	a0, 12(sp)
	sw	a0, 16(sp)
	sw	s0, 20(sp)
	blt	s1, a1, .LBB8_22
# %bb.15:                               # %if.then.i.i.i.i.i.i.i.i.i
	mv	a1, s3
	mv	a2, s1
	call	memmove
.LBB8_16:                               # %_ZNSt6vectorIiSaIiEEC2ERKS1_.exit
	sw	s0, 16(sp)
.Ltmp34:
	addi	a1, sp, 24
	addi	a2, sp, 12
	mv	a0, s2
	call	_ZN6TensorIfEC1ESt6vectorIfSaIfEES1_IiSaIiEE
.Ltmp35:
# %bb.17:                               # %invoke.cont12
	lw	a0, 12(sp)
	beqz	a0, .LBB8_19
# %bb.18:                               # %if.then.i.i.i
	lw	a1, 20(sp)
	sub	a1, a1, a0
	call	_ZdlPvj
.LBB8_19:                               # %_ZNSt6vectorIiSaIiEED2Ev.exit
	lw	a0, 24(sp)
	beqz	a0, .LBB8_21
# %bb.20:                               # %if.then.i.i.i36
	lw	a1, 32(sp)
	sub	a1, a1, a0
	call	_ZdlPvj
.LBB8_21:                               # %_ZNSt6vectorIfSaIfEED2Ev.exit
	lw	ra, 60(sp)                      # 4-byte Folded Reload
	lw	s0, 56(sp)                      # 4-byte Folded Reload
	lw	s1, 52(sp)                      # 4-byte Folded Reload
	lw	s2, 48(sp)                      # 4-byte Folded Reload
	lw	s3, 44(sp)                      # 4-byte Folded Reload
	lw	s4, 40(sp)                      # 4-byte Folded Reload
	lw	s5, 36(sp)                      # 4-byte Folded Reload
	.cfi_restore ra
	.cfi_restore s0
	.cfi_restore s1
	.cfi_restore s2
	.cfi_restore s3
	.cfi_restore s4
	.cfi_restore s5
	addi	sp, sp, 64
	.cfi_def_cfa_offset 0
	ret
.LBB8_22:                               # %if.else.i.i.i.i.i.i.i.i.i
	.cfi_restore_state
	li	a1, 4
	bne	s1, a1, .LBB8_16
# %bb.23:                               # %if.then2.i.i.i.i.i.i.i.i.i
	lw	a1, 0(s3)
	sw	a1, 0(a0)
	j	.LBB8_16
.LBB8_24:                               # %if.then.i.i.i.i.i
	srli	a0, a0, 30
	beqz	a0, .LBB8_27
# %bb.25:                               # %if.then3.i.i.i.i.i
.Ltmp31:
	call	_ZSt28__throw_bad_array_new_lengthv
.Ltmp32:
# %bb.26:                               # %.noexc29
.LBB8_27:                               # %if.end.i.i.i.i.i
.Ltmp29:
	call	_ZSt17__throw_bad_allocv
.Ltmp30:
# %bb.28:                               # %.noexc30
.LBB8_29:                               # %if.then.i.i
	lui	a0, %hi(.L.str.27)
	addi	a0, a0, %lo(.L.str.27)
	call	_ZSt20__throw_length_errorPKc
.LBB8_30:                               # %lpad11
.Ltmp36:
	lw	a2, 12(sp)
	mv	s0, a0
	beqz	a2, .LBB8_32
# %bb.31:                               # %if.then.i.i.i42
	lw	a1, 20(sp)
	sub	a1, a1, a2
	mv	a0, a2
	call	_ZdlPvj
.LBB8_32:                               # %ehcleanup
	mv	a0, s0
	j	.LBB8_34
.LBB8_33:                               # %lpad9
.Ltmp33:
.LBB8_34:                               # %ehcleanup
	lw	a2, 24(sp)
	beqz	a2, .LBB8_36
# %bb.35:                               # %if.then.i.i.i49
	lw	a1, 32(sp)
	sub	a1, a1, a2
	mv	s0, a0
	mv	a0, a2
	call	_ZdlPvj
	mv	a0, s0
.LBB8_36:                               # %ehcleanup13
	call	_Unwind_Resume
.Lfunc_end8:
	.size	_ZN6TensorIfE5zerosESt6vectorIiSaIiEE, .Lfunc_end8-_ZN6TensorIfE5zerosESt6vectorIiSaIiEE
	.cfi_endproc
	.section	.gcc_except_table._ZN6TensorIfE5zerosESt6vectorIiSaIiEE,"aG",@progbits,_ZN6TensorIfE5zerosESt6vectorIiSaIiEE,comdat
	.p2align	2, 0x0
GCC_except_table8:
.Lexception4:
	.byte	255                             # @LPStart Encoding = omit
	.byte	255                             # @TType Encoding = omit
	.byte	3                               # Call site Encoding = udata4
	.uleb128 .Lcst_end4-.Lcst_begin4
.Lcst_begin4:
	.word	.Lfunc_begin4-.Lfunc_begin4     # >> Call Site 1 <<
	.word	.Ltmp27-.Lfunc_begin4           #   Call between .Lfunc_begin4 and .Ltmp27
	.word	0                               #     has no landing pad
	.byte	0                               #   On action: cleanup
	.word	.Ltmp27-.Lfunc_begin4           # >> Call Site 2 <<
	.word	.Ltmp28-.Ltmp27                 #   Call between .Ltmp27 and .Ltmp28
	.word	.Ltmp33-.Lfunc_begin4           #     jumps to .Ltmp33
	.byte	0                               #   On action: cleanup
	.word	.Ltmp28-.Lfunc_begin4           # >> Call Site 3 <<
	.word	.Ltmp34-.Ltmp28                 #   Call between .Ltmp28 and .Ltmp34
	.word	0                               #     has no landing pad
	.byte	0                               #   On action: cleanup
	.word	.Ltmp34-.Lfunc_begin4           # >> Call Site 4 <<
	.word	.Ltmp35-.Ltmp34                 #   Call between .Ltmp34 and .Ltmp35
	.word	.Ltmp36-.Lfunc_begin4           #     jumps to .Ltmp36
	.byte	0                               #   On action: cleanup
	.word	.Ltmp31-.Lfunc_begin4           # >> Call Site 5 <<
	.word	.Ltmp30-.Ltmp31                 #   Call between .Ltmp31 and .Ltmp30
	.word	.Ltmp33-.Lfunc_begin4           #     jumps to .Ltmp33
	.byte	0                               #   On action: cleanup
	.word	.Ltmp30-.Lfunc_begin4           # >> Call Site 6 <<
	.word	.Lfunc_end8-.Ltmp30             #   Call between .Ltmp30 and .Lfunc_end8
	.word	0                               #     has no landing pad
	.byte	0                               #   On action: cleanup
.Lcst_end4:
	.p2align	2, 0x0
                                        # -- End function
	.section	.text._ZN6TensorIfE6normalESt6vectorIiSaIiEEff,"axG",@progbits,_ZN6TensorIfE6normalESt6vectorIiSaIiEEff,comdat
	.weak	_ZN6TensorIfE6normalESt6vectorIiSaIiEEff # -- Begin function _ZN6TensorIfE6normalESt6vectorIiSaIiEEff
	.p2align	1
	.type	_ZN6TensorIfE6normalESt6vectorIiSaIiEEff,@function
_ZN6TensorIfE6normalESt6vectorIiSaIiEEff: # @_ZN6TensorIfE6normalESt6vectorIiSaIiEEff
.Lfunc_begin5:
	.cfi_startproc
	.cfi_personality 155, DW.ref.__gxx_personality_v0
	.cfi_lsda 27, .Lexception5
# %bb.0:                                # %entry
	addi	sp, sp, -2032
	.cfi_def_cfa_offset 2032
	sw	ra, 2028(sp)                    # 4-byte Folded Spill
	sw	s0, 2024(sp)                    # 4-byte Folded Spill
	sw	s1, 2020(sp)                    # 4-byte Folded Spill
	sw	s2, 2016(sp)                    # 4-byte Folded Spill
	sw	s3, 2012(sp)                    # 4-byte Folded Spill
	sw	s4, 2008(sp)                    # 4-byte Folded Spill
	sw	s5, 2004(sp)                    # 4-byte Folded Spill
	sw	s6, 2000(sp)                    # 4-byte Folded Spill
	sw	s7, 1996(sp)                    # 4-byte Folded Spill
	sw	s8, 1992(sp)                    # 4-byte Folded Spill
	.cfi_offset ra, -4
	.cfi_offset s0, -8
	.cfi_offset s1, -12
	.cfi_offset s2, -16
	.cfi_offset s3, -20
	.cfi_offset s4, -24
	.cfi_offset s5, -28
	.cfi_offset s6, -32
	.cfi_offset s7, -36
	.cfi_offset s8, -40
	addi	sp, sp, -2048
	addi	sp, sp, -1024
	.cfi_def_cfa_offset 5104
	.cfi_remember_state
	mv	s1, a3
	mv	s3, a2
	mv	s4, a1
	mv	s2, a0
	addi	s0, sp, 72
	lui	a0, 398950
	lui	a1, 1863
	li	a2, 7
	addi	a0, a0, 1380
	addi	a1, a1, -907
	sw	s0, 64(sp)
	sw	a2, 68(sp)
	sw	a0, 72(sp)
	sw	a1, 76(sp)
.Ltmp37:
	addi	a0, sp, 2047
	addi	a0, a0, 517
	addi	a1, sp, 64
	call	_ZNSt13random_device7_M_initERKNSt7__cxx1112basic_stringIcSt11char_traitsIcESaIcEEE
.Ltmp38:
# %bb.1:                                # %invoke.cont4.i
	lw	a0, 64(sp)
	beq	a0, s0, .LBB9_3
# %bb.2:                                # %if.then.i.i10.i
	lw	a1, 72(sp)
	addi	a1, a1, 1
	call	_ZdlPvj
.LBB9_3:                                # %_ZNSt13random_deviceC2Ev.exit
.Ltmp40:
	addi	a0, sp, 2047
	addi	a0, a0, 517
	call	_ZNSt13random_device9_M_getvalEv
.Ltmp41:
# %bb.4:                                # %invoke.cont
	fmv.w.x	fa5, s1
	fsw	fa5, 24(sp)                     # 4-byte Folded Spill
	fmv.w.x	fa5, s3
	fsw	fa5, 20(sp)                     # 4-byte Folded Spill
	sw	a0, 64(sp)
	li	a1, 1
	addi	a2, sp, 68
	lui	a3, 442489
	addi	a3, a3, -1691
	li	a4, 624
.LBB9_5:                                # %for.body.i.i
                                        # =>This Inner Loop Header: Depth=1
	srli	a5, a0, 30
	xor	a0, a0, a5
	mul	a0, a0, a3
	add	a0, a0, a1
	addi	a1, a1, 1
	sw	a0, 0(a2)
	addi	a2, a2, 4
	bne	a1, a4, .LBB9_5
# %bb.6:                                # %_ZNSt23mersenne_twister_engineIjLj32ELj624ELj397ELj31ELj2567483615ELj11ELj4294967295ELj7ELj2636928640ELj15ELj4022730752ELj18ELj1812433253EEC2Ej.exit
	lw	a0, 0(s4)
	lw	a1, 4(s4)
	addi	a2, sp, 64
	addi	a2, a2, 2047
	li	a3, 624
	sw	a3, 449(a2)
	li	s7, 1
	beq	a0, a1, .LBB9_8
.LBB9_7:                                # %for.body
                                        # =>This Inner Loop Header: Depth=1
	lw	a2, 0(a0)
	addi	a0, a0, 4
	mul	s7, a2, s7
	bne	a0, a1, .LBB9_7
.LBB9_8:                                # %for.cond.cleanup
	srli	a0, s7, 29
	bnez	a0, .LBB9_61
# %bb.9:                                # %_ZNSt6vectorIfSaIfEE17_S_check_init_lenEjRKS0_.exit.i
	slli	s3, s7, 2
	beqz	s7, .LBB9_12
# %bb.10:                               # %_ZNSt15__new_allocatorIfE8allocateEjPKv.exit.i.i.i.i
.Ltmp43:
	mv	a0, s3
	call	_Znwj
.Ltmp44:
# %bb.11:
	mv	s6, a0
	mv	s5, s6
	bnez	s7, .LBB9_13
	j	.LBB9_15
.LBB9_12:
	li	s6, 0
	mv	s5, s6
	beqz	s7, .LBB9_15
.LBB9_13:                               # %if.then.i.i.i.i5.i
	sw	zero, 0(s6)
	li	a0, 1
	addi	s5, s6, 4
	beq	s7, a0, .LBB9_15
# %bb.14:                               # %if.end.i.i.i.i.i.i.i
	add	s0, s6, s3
	addi	a2, s3, -4
	mv	a0, s5
	li	a1, 0
	call	memset
	mv	s5, s0
.LBB9_15:                               # %invoke.cont12
	beqz	s7, .LBB9_26
# %bb.16:                               # %for.body15.preheader
	li	s1, 0
	li	s8, 0
	fmv.w.x	fa5, zero
	lui	a0, 784384
	fmv.w.x	fa4, a0
	fsw	fa4, 36(sp)                     # 4-byte Folded Spill
	lui	a0, 260096
	fmv.w.x	fa4, a0
	fsw	fa4, 32(sp)                     # 4-byte Folded Spill
	lui	a0, 786432
	fmv.w.x	fa4, a0
	fsw	fa4, 4(sp)                      # 4-byte Folded Spill
	fsw	fa5, 28(sp)                     # 4-byte Folded Spill
	j	.LBB9_19
.LBB9_17:                               # %do.end.i.i.split
                                        #   in Loop: Header=BB9_19 Depth=1
	flw	fa5, 16(sp)                     # 4-byte Folded Reload
	fmul.s	fa5, fa5, fa4
	flw	fa3, 12(sp)                     # 4-byte Folded Reload
	fmul.s	fa4, fa3, fa4
.LBB9_18:                               # %_ZNSt19normal_distributionIfEclISt23mersenne_twister_engineIjLj32ELj624ELj397ELj31ELj2567483615ELj11ELj4294967295ELj7ELj2636928640ELj15ELj4022730752ELj18ELj1812433253EEEEfRT_.exit
                                        #   in Loop: Header=BB9_19 Depth=1
	xori	s8, s8, 1
	flw	fa3, 24(sp)                     # 4-byte Folded Reload
	flw	fa2, 20(sp)                     # 4-byte Folded Reload
	fmadd.s	fa4, fa4, fa3, fa2
	slli	a0, s1, 2
	add	a0, a0, s6
	addi	s1, s1, 1
	fsw	fa4, 0(a0)
	beq	s1, s7, .LBB9_26
.LBB9_19:                               # %for.body15
                                        # =>This Loop Header: Depth=1
                                        #     Child Loop BB9_20 Depth 2
	andi	a0, s8, 1
	fmv.s	fa4, fa5
	bnez	a0, .LBB9_18
.LBB9_20:                               # %do.body.i.i
                                        #   Parent Loop BB9_19 Depth=1
                                        # =>  This Inner Loop Header: Depth=2
.Ltmp45:
	addi	a0, sp, 64
	call	_ZSt18generate_canonicalIfLj24ESt23mersenne_twister_engineIjLj32ELj624ELj397ELj31ELj2567483615ELj11ELj4294967295ELj7ELj2636928640ELj15ELj4022730752ELj18ELj1812433253EEET_RT1_
.Ltmp46:
# %bb.21:                               # %call.i.i.i.noexc
                                        #   in Loop: Header=BB9_20 Depth=2
.Ltmp47:
	mv	s0, a0
	addi	a0, sp, 64
	call	_ZSt18generate_canonicalIfLj24ESt23mersenne_twister_engineIjLj32ELj624ELj397ELj31ELj2567483615ELj11ELj4294967295ELj7ELj2636928640ELj15ELj4022730752ELj18ELj1812433253EEET_RT1_
.Ltmp48:
# %bb.22:                               # %call.i34.i.i.noexc
                                        #   in Loop: Header=BB9_20 Depth=2
	fmv.w.x	fa5, s0
	fmv.w.x	fa4, a0
	fadd.s	fa5, fa5, fa5
	fadd.s	fa4, fa4, fa4
	flw	fa3, 36(sp)                     # 4-byte Folded Reload
	fadd.s	fa2, fa5, fa3
	fadd.s	fa4, fa4, fa3
	fmul.s	fa5, fa4, fa4
	fmadd.s	fa3, fa2, fa2, fa5
	flw	fa5, 32(sp)                     # 4-byte Folded Reload
	flt.s	a0, fa5, fa3
	bnez	a0, .LBB9_20
# %bb.23:                               # %call.i34.i.i.noexc
                                        #   in Loop: Header=BB9_20 Depth=2
	flw	fa5, 28(sp)                     # 4-byte Folded Reload
	feq.s	a0, fa3, fa5
	bnez	a0, .LBB9_20
# %bb.24:                               # %do.end.i.i
                                        #   in Loop: Header=BB9_19 Depth=1
	fsw	fa4, 12(sp)                     # 4-byte Folded Spill
	fsw	fa2, 16(sp)                     # 4-byte Folded Spill
	fmv.x.w	a0, fa3
	fsw	fa3, 8(sp)                      # 4-byte Folded Spill
	call	logf
	fmv.w.x	fa5, a0
	flw	fa4, 4(sp)                      # 4-byte Folded Reload
	fmul.s	fa5, fa5, fa4
	flw	fa4, 8(sp)                      # 4-byte Folded Reload
	fdiv.s	fa5, fa5, fa4
	fsqrt.s	fa4, fa5
	feq.s	a0, fa4, fa4
	bnez	a0, .LBB9_17
# %bb.25:                               # %call.sqrt
                                        #   in Loop: Header=BB9_19 Depth=1
	fmv.x.w	a0, fa5
	call	sqrtf
	fmv.w.x	fa4, a0
	j	.LBB9_17
.LBB9_26:                               # %for.cond.cleanup14
	sub	s0, s5, s6
	sw	zero, 52(sp)
	sw	zero, 56(sp)
	sw	zero, 60(sp)
	beq	s5, s6, .LBB9_29
# %bb.27:                               # %cond.true.i.i.i.i
	srai	a0, s0, 2
	srli	a1, a0, 29
	bnez	a1, .LBB9_51
# %bb.28:                               # %_ZNSt15__new_allocatorIfE8allocateEjPKv.exit.i.i.i.i54
.Ltmp50:
	mv	a0, s0
	call	_Znwj
.Ltmp51:
	j	.LBB9_30
.LBB9_29:
	li	a0, 0
.LBB9_30:                               # %_ZNSt12_Vector_baseIfSaIfEEC2EjRKS0_.exit.i55
	add	s1, a0, s0
	li	a1, 5
	sw	a0, 52(sp)
	sw	a0, 56(sp)
	sw	s1, 60(sp)
	blt	s0, a1, .LBB9_47
# %bb.31:                               # %if.then.i.i.i.i.i.i.i.i.i
	mv	a1, s6
	mv	a2, s0
	call	memcpy
.LBB9_32:                               # %_ZNSt6vectorIfSaIfEEC2ERKS1_.exit
	lw	s5, 0(s4)
	lw	a0, 4(s4)
	sw	s1, 56(sp)
	sub	s0, a0, s5
	sw	zero, 40(sp)
	sw	zero, 44(sp)
	sw	zero, 48(sp)
	beq	a0, s5, .LBB9_35
# %bb.33:                               # %cond.true.i.i.i.i74
	srai	a0, s0, 2
	srli	a1, a0, 29
	bnez	a1, .LBB9_54
# %bb.34:                               # %_ZNSt15__new_allocatorIiE8allocateEjPKv.exit.i.i.i.i
.Ltmp57:
	mv	a0, s0
	call	_Znwj
.Ltmp58:
	j	.LBB9_36
.LBB9_35:
	li	a0, 0
.LBB9_36:                               # %_ZNSt12_Vector_baseIiSaIiEEC2EjRKS0_.exit.i
	add	s1, a0, s0
	li	a1, 5
	sw	a0, 40(sp)
	sw	a0, 44(sp)
	sw	s1, 48(sp)
	blt	s0, a1, .LBB9_49
# %bb.37:                               # %if.then.i.i.i.i.i.i.i.i.i86
	mv	a1, s5
	mv	a2, s0
	call	memmove
.LBB9_38:                               # %_ZNSt6vectorIiSaIiEEC2ERKS1_.exit
	sw	s1, 44(sp)
.Ltmp64:
	addi	a1, sp, 52
	addi	a2, sp, 40
	mv	a0, s2
	call	_ZN6TensorIfEC1ESt6vectorIfSaIfEES1_IiSaIiEE
.Ltmp65:
# %bb.39:                               # %invoke.cont28
	lw	a0, 40(sp)
	beqz	a0, .LBB9_41
# %bb.40:                               # %if.then.i.i.i
	lw	a1, 48(sp)
	sub	a1, a1, a0
	call	_ZdlPvj
.LBB9_41:                               # %_ZNSt6vectorIiSaIiEED2Ev.exit
	lw	a0, 52(sp)
	beqz	a0, .LBB9_43
# %bb.42:                               # %if.then.i.i.i99
	lw	a1, 60(sp)
	sub	a1, a1, a0
	call	_ZdlPvj
.LBB9_43:                               # %_ZNSt6vectorIfSaIfEED2Ev.exit
	beqz	s6, .LBB9_45
# %bb.44:                               # %if.then.i.i.i105
	mv	a0, s6
	mv	a1, s3
	call	_ZdlPvj
.LBB9_45:                               # %_ZNSt6vectorIfSaIfEED2Ev.exit110
.Ltmp67:
	addi	a0, sp, 2047
	addi	a0, a0, 517
	call	_ZNSt13random_device7_M_finiEv
.Ltmp68:
# %bb.46:                               # %_ZNSt13random_deviceD2Ev.exit
	addi	sp, sp, 2032
	addi	sp, sp, 1040
	.cfi_def_cfa_offset 2032
	lw	ra, 2028(sp)                    # 4-byte Folded Reload
	lw	s0, 2024(sp)                    # 4-byte Folded Reload
	lw	s1, 2020(sp)                    # 4-byte Folded Reload
	lw	s2, 2016(sp)                    # 4-byte Folded Reload
	lw	s3, 2012(sp)                    # 4-byte Folded Reload
	lw	s4, 2008(sp)                    # 4-byte Folded Reload
	lw	s5, 2004(sp)                    # 4-byte Folded Reload
	lw	s6, 2000(sp)                    # 4-byte Folded Reload
	lw	s7, 1996(sp)                    # 4-byte Folded Reload
	lw	s8, 1992(sp)                    # 4-byte Folded Reload
	.cfi_restore ra
	.cfi_restore s0
	.cfi_restore s1
	.cfi_restore s2
	.cfi_restore s3
	.cfi_restore s4
	.cfi_restore s5
	.cfi_restore s6
	.cfi_restore s7
	.cfi_restore s8
	addi	sp, sp, 2032
	.cfi_def_cfa_offset 0
	ret
.LBB9_47:                               # %if.else.i.i.i.i.i.i.i.i.i
	.cfi_restore_state
	li	a1, 4
	bne	s0, a1, .LBB9_32
# %bb.48:                               # %if.then2.i.i.i.i.i.i.i.i.i
	flw	fa5, 0(s6)
	fsw	fa5, 0(a0)
	j	.LBB9_32
.LBB9_49:                               # %if.else.i.i.i.i.i.i.i.i.i82
	li	a1, 4
	bne	s0, a1, .LBB9_38
# %bb.50:                               # %if.then2.i.i.i.i.i.i.i.i.i85
	lw	a1, 0(s5)
	sw	a1, 0(a0)
	j	.LBB9_38
.LBB9_51:                               # %if.then.i.i.i.i.i
	srli	a0, a0, 30
	beqz	a0, .LBB9_57
# %bb.52:                               # %if.then3.i.i.i.i.i
.Ltmp54:
	call	_ZSt28__throw_bad_array_new_lengthv
.Ltmp55:
# %bb.53:                               # %.noexc58
.LBB9_54:                               # %if.then.i.i.i.i.i87
	srli	a0, a0, 30
	beqz	a0, .LBB9_59
# %bb.55:                               # %if.then3.i.i.i.i.i90
.Ltmp61:
	call	_ZSt28__throw_bad_array_new_lengthv
.Ltmp62:
# %bb.56:                               # %.noexc91
.LBB9_57:                               # %if.end.i.i.i.i.i
.Ltmp52:
	call	_ZSt17__throw_bad_allocv
.Ltmp53:
# %bb.58:                               # %.noexc59
.LBB9_59:                               # %if.end.i.i.i.i.i89
.Ltmp59:
	call	_ZSt17__throw_bad_allocv
.Ltmp60:
# %bb.60:                               # %.noexc92
.LBB9_61:                               # %if.then.i.i
.Ltmp70:
	lui	a0, %hi(.L.str.27)
	addi	a0, a0, %lo(.L.str.27)
	call	_ZSt20__throw_length_errorPKc
.Ltmp71:
# %bb.62:                               # %.noexc
.LBB9_63:                               # %terminate.lpad.i
.Ltmp69:
	call	__clang_call_terminate
.LBB9_64:                               # %lpad27
.Ltmp66:
	lw	a2, 40(sp)
	mv	s1, a0
	bnez	a2, .LBB9_67
# %bb.65:                               # %ehcleanup
	lw	a0, 52(sp)
	bnez	a0, .LBB9_73
.LBB9_66:                               # %ehcleanup29
	bnez	s6, .LBB9_76
	j	.LBB9_77
.LBB9_67:                               # %if.then.i.i.i112
	lw	a1, 48(sp)
	sub	a1, a1, a2
	mv	a0, a2
	call	_ZdlPvj
	lw	a0, 52(sp)
	beqz	a0, .LBB9_66
	j	.LBB9_73
.LBB9_68:                               # %lpad
.Ltmp42:
	mv	s1, a0
	j	.LBB9_77
.LBB9_69:                               # %lpad3.i
.Ltmp39:
	lw	a2, 64(sp)
	mv	s1, a0
	beq	a2, s0, .LBB9_78
# %bb.70:                               # %if.then.i.i12.i
	lw	a1, 72(sp)
	addi	a1, a1, 1
	mv	a0, a2
	call	_ZdlPvj
	mv	a0, s1
	call	_Unwind_Resume
.LBB9_71:                               # %lpad11
.Ltmp72:
	mv	s1, a0
	j	.LBB9_77
.LBB9_72:                               # %lpad25
.Ltmp63:
	mv	s1, a0
	lw	a0, 52(sp)
	beqz	a0, .LBB9_66
.LBB9_73:                               # %if.then.i.i.i119
	lw	a1, 60(sp)
	sub	a1, a1, a0
	call	_ZdlPvj
	bnez	s6, .LBB9_76
	j	.LBB9_77
.LBB9_74:                               # %lpad22
.Ltmp56:
	mv	s1, a0
	bnez	s6, .LBB9_76
	j	.LBB9_77
.LBB9_75:                               # %lpad16
.Ltmp49:
	mv	s1, a0
	beqz	s6, .LBB9_77
.LBB9_76:                               # %if.then.i.i.i126
	mv	a0, s6
	mv	a1, s3
	call	_ZdlPvj
.LBB9_77:                               # %ehcleanup33
.Ltmp73:
	addi	a0, sp, 2047
	addi	a0, a0, 517
	call	_ZNSt13random_device7_M_finiEv
.Ltmp74:
.LBB9_78:                               # %common.resume
	mv	a0, s1
	call	_Unwind_Resume
.LBB9_79:                               # %terminate.lpad.i132
.Ltmp75:
	call	__clang_call_terminate
.Lfunc_end9:
	.size	_ZN6TensorIfE6normalESt6vectorIiSaIiEEff, .Lfunc_end9-_ZN6TensorIfE6normalESt6vectorIiSaIiEEff
	.cfi_endproc
	.section	.gcc_except_table._ZN6TensorIfE6normalESt6vectorIiSaIiEEff,"aG",@progbits,_ZN6TensorIfE6normalESt6vectorIiSaIiEEff,comdat
	.p2align	2, 0x0
GCC_except_table9:
.Lexception5:
	.byte	255                             # @LPStart Encoding = omit
	.byte	155                             # @TType Encoding = indirect pcrel sdata4
	.uleb128 .Lttbase0-.Lttbaseref0
.Lttbaseref0:
	.byte	3                               # Call site Encoding = udata4
	.uleb128 .Lcst_end5-.Lcst_begin5
.Lcst_begin5:
	.word	.Ltmp37-.Lfunc_begin5           # >> Call Site 1 <<
	.word	.Ltmp38-.Ltmp37                 #   Call between .Ltmp37 and .Ltmp38
	.word	.Ltmp39-.Lfunc_begin5           #     jumps to .Ltmp39
	.byte	0                               #   On action: cleanup
	.word	.Ltmp40-.Lfunc_begin5           # >> Call Site 2 <<
	.word	.Ltmp41-.Ltmp40                 #   Call between .Ltmp40 and .Ltmp41
	.word	.Ltmp42-.Lfunc_begin5           #     jumps to .Ltmp42
	.byte	0                               #   On action: cleanup
	.word	.Ltmp43-.Lfunc_begin5           # >> Call Site 3 <<
	.word	.Ltmp44-.Ltmp43                 #   Call between .Ltmp43 and .Ltmp44
	.word	.Ltmp72-.Lfunc_begin5           #     jumps to .Ltmp72
	.byte	0                               #   On action: cleanup
	.word	.Ltmp44-.Lfunc_begin5           # >> Call Site 4 <<
	.word	.Ltmp45-.Ltmp44                 #   Call between .Ltmp44 and .Ltmp45
	.word	0                               #     has no landing pad
	.byte	0                               #   On action: cleanup
	.word	.Ltmp45-.Lfunc_begin5           # >> Call Site 5 <<
	.word	.Ltmp48-.Ltmp45                 #   Call between .Ltmp45 and .Ltmp48
	.word	.Ltmp49-.Lfunc_begin5           #     jumps to .Ltmp49
	.byte	0                               #   On action: cleanup
	.word	.Ltmp48-.Lfunc_begin5           # >> Call Site 6 <<
	.word	.Ltmp50-.Ltmp48                 #   Call between .Ltmp48 and .Ltmp50
	.word	0                               #     has no landing pad
	.byte	0                               #   On action: cleanup
	.word	.Ltmp50-.Lfunc_begin5           # >> Call Site 7 <<
	.word	.Ltmp51-.Ltmp50                 #   Call between .Ltmp50 and .Ltmp51
	.word	.Ltmp56-.Lfunc_begin5           #     jumps to .Ltmp56
	.byte	0                               #   On action: cleanup
	.word	.Ltmp51-.Lfunc_begin5           # >> Call Site 8 <<
	.word	.Ltmp57-.Ltmp51                 #   Call between .Ltmp51 and .Ltmp57
	.word	0                               #     has no landing pad
	.byte	0                               #   On action: cleanup
	.word	.Ltmp57-.Lfunc_begin5           # >> Call Site 9 <<
	.word	.Ltmp58-.Ltmp57                 #   Call between .Ltmp57 and .Ltmp58
	.word	.Ltmp63-.Lfunc_begin5           #     jumps to .Ltmp63
	.byte	0                               #   On action: cleanup
	.word	.Ltmp58-.Lfunc_begin5           # >> Call Site 10 <<
	.word	.Ltmp64-.Ltmp58                 #   Call between .Ltmp58 and .Ltmp64
	.word	0                               #     has no landing pad
	.byte	0                               #   On action: cleanup
	.word	.Ltmp64-.Lfunc_begin5           # >> Call Site 11 <<
	.word	.Ltmp65-.Ltmp64                 #   Call between .Ltmp64 and .Ltmp65
	.word	.Ltmp66-.Lfunc_begin5           #     jumps to .Ltmp66
	.byte	0                               #   On action: cleanup
	.word	.Ltmp67-.Lfunc_begin5           # >> Call Site 12 <<
	.word	.Ltmp68-.Ltmp67                 #   Call between .Ltmp67 and .Ltmp68
	.word	.Ltmp69-.Lfunc_begin5           #     jumps to .Ltmp69
	.byte	1                               #   On action: 1
	.word	.Ltmp54-.Lfunc_begin5           # >> Call Site 13 <<
	.word	.Ltmp55-.Ltmp54                 #   Call between .Ltmp54 and .Ltmp55
	.word	.Ltmp56-.Lfunc_begin5           #     jumps to .Ltmp56
	.byte	0                               #   On action: cleanup
	.word	.Ltmp61-.Lfunc_begin5           # >> Call Site 14 <<
	.word	.Ltmp62-.Ltmp61                 #   Call between .Ltmp61 and .Ltmp62
	.word	.Ltmp63-.Lfunc_begin5           #     jumps to .Ltmp63
	.byte	0                               #   On action: cleanup
	.word	.Ltmp52-.Lfunc_begin5           # >> Call Site 15 <<
	.word	.Ltmp53-.Ltmp52                 #   Call between .Ltmp52 and .Ltmp53
	.word	.Ltmp56-.Lfunc_begin5           #     jumps to .Ltmp56
	.byte	0                               #   On action: cleanup
	.word	.Ltmp59-.Lfunc_begin5           # >> Call Site 16 <<
	.word	.Ltmp60-.Ltmp59                 #   Call between .Ltmp59 and .Ltmp60
	.word	.Ltmp63-.Lfunc_begin5           #     jumps to .Ltmp63
	.byte	0                               #   On action: cleanup
	.word	.Ltmp70-.Lfunc_begin5           # >> Call Site 17 <<
	.word	.Ltmp71-.Ltmp70                 #   Call between .Ltmp70 and .Ltmp71
	.word	.Ltmp72-.Lfunc_begin5           #     jumps to .Ltmp72
	.byte	0                               #   On action: cleanup
	.word	.Ltmp71-.Lfunc_begin5           # >> Call Site 18 <<
	.word	.Ltmp73-.Ltmp71                 #   Call between .Ltmp71 and .Ltmp73
	.word	0                               #     has no landing pad
	.byte	0                               #   On action: cleanup
	.word	.Ltmp73-.Lfunc_begin5           # >> Call Site 19 <<
	.word	.Ltmp74-.Ltmp73                 #   Call between .Ltmp73 and .Ltmp74
	.word	.Ltmp75-.Lfunc_begin5           #     jumps to .Ltmp75
	.byte	1                               #   On action: 1
	.word	.Ltmp74-.Lfunc_begin5           # >> Call Site 20 <<
	.word	.Lfunc_end9-.Ltmp74             #   Call between .Ltmp74 and .Lfunc_end9
	.word	0                               #     has no landing pad
	.byte	0                               #   On action: cleanup
.Lcst_end5:
	.byte	1                               # >> Action Record 1 <<
                                        #   Catch TypeInfo 1
	.byte	0                               #   No further actions
	.p2align	2, 0x0
                                        # >> Catch TypeInfos <<
	.word	0                               # TypeInfo 1
.Lttbase0:
	.p2align	2, 0x0
                                        # -- End function
	.section	.text._ZNK6TensorIfE7getDataEv,"axG",@progbits,_ZNK6TensorIfE7getDataEv,comdat
	.weak	_ZNK6TensorIfE7getDataEv        # -- Begin function _ZNK6TensorIfE7getDataEv
	.p2align	1
	.type	_ZNK6TensorIfE7getDataEv,@function
_ZNK6TensorIfE7getDataEv:               # @_ZNK6TensorIfE7getDataEv
# %bb.0:                                # %entry
	ret
.Lfunc_end10:
	.size	_ZNK6TensorIfE7getDataEv, .Lfunc_end10-_ZNK6TensorIfE7getDataEv
                                        # -- End function
	.section	.text._ZNK6TensorIfE8getShapeEv,"axG",@progbits,_ZNK6TensorIfE8getShapeEv,comdat
	.weak	_ZNK6TensorIfE8getShapeEv       # -- Begin function _ZNK6TensorIfE8getShapeEv
	.p2align	1
	.type	_ZNK6TensorIfE8getShapeEv,@function
_ZNK6TensorIfE8getShapeEv:              # @_ZNK6TensorIfE8getShapeEv
	.cfi_startproc
# %bb.0:                                # %entry
	addi	sp, sp, -32
	.cfi_def_cfa_offset 32
	sw	ra, 28(sp)                      # 4-byte Folded Spill
	sw	s0, 24(sp)                      # 4-byte Folded Spill
	sw	s1, 20(sp)                      # 4-byte Folded Spill
	sw	s2, 16(sp)                      # 4-byte Folded Spill
	sw	s3, 12(sp)                      # 4-byte Folded Spill
	.cfi_offset ra, -4
	.cfi_offset s0, -8
	.cfi_offset s1, -12
	.cfi_offset s2, -16
	.cfi_offset s3, -20
	.cfi_remember_state
	mv	s0, a0
	lw	s2, 12(a1)
	lw	a0, 16(a1)
	sub	s1, a0, s2
	sw	zero, 0(s0)
	sw	zero, 4(s0)
	sw	zero, 8(s0)
	beq	a0, s2, .LBB11_3
# %bb.1:                                # %cond.true.i.i.i.i
	srai	a0, s1, 2
	srli	a1, a0, 29
	bnez	a1, .LBB11_9
# %bb.2:                                # %_ZNSt15__new_allocatorIiE8allocateEjPKv.exit.i.i.i.i
	mv	a0, s1
	call	_Znwj
	j	.LBB11_4
.LBB11_3:
	li	a0, 0
.LBB11_4:                               # %_ZNSt12_Vector_baseIiSaIiEEC2EjRKS0_.exit.i
	add	s3, a0, s1
	li	a1, 5
	sw	a0, 0(s0)
	sw	a0, 4(s0)
	sw	s3, 8(s0)
	blt	s1, a1, .LBB11_7
# %bb.5:                                # %if.then.i.i.i.i.i.i.i.i.i
	mv	a1, s2
	mv	a2, s1
	call	memmove
.LBB11_6:                               # %_ZNSt6vectorIiSaIiEEC2ERKS1_.exit
	sw	s3, 4(s0)
	lw	ra, 28(sp)                      # 4-byte Folded Reload
	lw	s0, 24(sp)                      # 4-byte Folded Reload
	lw	s1, 20(sp)                      # 4-byte Folded Reload
	lw	s2, 16(sp)                      # 4-byte Folded Reload
	lw	s3, 12(sp)                      # 4-byte Folded Reload
	.cfi_restore ra
	.cfi_restore s0
	.cfi_restore s1
	.cfi_restore s2
	.cfi_restore s3
	addi	sp, sp, 32
	.cfi_def_cfa_offset 0
	ret
.LBB11_7:                               # %if.else.i.i.i.i.i.i.i.i.i
	.cfi_restore_state
	li	a1, 4
	bne	s1, a1, .LBB11_6
# %bb.8:                                # %if.then2.i.i.i.i.i.i.i.i.i
	lw	a1, 0(s2)
	sw	a1, 0(a0)
	j	.LBB11_6
.LBB11_9:                               # %if.then.i.i.i.i.i
	srli	a0, a0, 30
	beqz	a0, .LBB11_11
# %bb.10:                               # %if.then3.i.i.i.i.i
	call	_ZSt28__throw_bad_array_new_lengthv
.LBB11_11:                              # %if.end.i.i.i.i.i
	call	_ZSt17__throw_bad_allocv
.Lfunc_end11:
	.size	_ZNK6TensorIfE8getShapeEv, .Lfunc_end11-_ZNK6TensorIfE8getShapeEv
	.cfi_endproc
                                        # -- End function
	.section	.text._ZNK6TensorIfE7getRankEv,"axG",@progbits,_ZNK6TensorIfE7getRankEv,comdat
	.weak	_ZNK6TensorIfE7getRankEv        # -- Begin function _ZNK6TensorIfE7getRankEv
	.p2align	1
	.type	_ZNK6TensorIfE7getRankEv,@function
_ZNK6TensorIfE7getRankEv:               # @_ZNK6TensorIfE7getRankEv
# %bb.0:                                # %entry
	lw	a1, 12(a0)
	lw	a0, 16(a0)
	sub	a0, a0, a1
	srai	a0, a0, 2
	ret
.Lfunc_end12:
	.size	_ZNK6TensorIfE7getRankEv, .Lfunc_end12-_ZNK6TensorIfE7getRankEv
                                        # -- End function
	.section	.text._ZNK6TensorIfE4sizeEv,"axG",@progbits,_ZNK6TensorIfE4sizeEv,comdat
	.weak	_ZNK6TensorIfE4sizeEv           # -- Begin function _ZNK6TensorIfE4sizeEv
	.p2align	1
	.type	_ZNK6TensorIfE4sizeEv,@function
_ZNK6TensorIfE4sizeEv:                  # @_ZNK6TensorIfE4sizeEv
# %bb.0:                                # %entry
	lw	a1, 0(a0)
	lw	a0, 4(a0)
	sub	a0, a0, a1
	srai	a0, a0, 2
	ret
.Lfunc_end13:
	.size	_ZNK6TensorIfE4sizeEv, .Lfunc_end13-_ZNK6TensorIfE4sizeEv
                                        # -- End function
	.section	.text._ZN6TensorIfE7setDataESt6vectorIfSaIfEE,"axG",@progbits,_ZN6TensorIfE7setDataESt6vectorIfSaIfEE,comdat
	.weak	_ZN6TensorIfE7setDataESt6vectorIfSaIfEE # -- Begin function _ZN6TensorIfE7setDataESt6vectorIfSaIfEE
	.p2align	1
	.type	_ZN6TensorIfE7setDataESt6vectorIfSaIfEE,@function
_ZN6TensorIfE7setDataESt6vectorIfSaIfEE: # @_ZN6TensorIfE7setDataESt6vectorIfSaIfEE
	.cfi_startproc
# %bb.0:                                # %entry
	lw	a2, 0(a1)
	lw	a3, 4(a1)
	lw	a4, 0(a0)
	lw	a5, 4(a0)
	sub	a3, a3, a2
	sub	a5, a5, a4
	bne	a3, a5, .LBB14_2
# %bb.1:                                # %if.end
	tail	_ZNSt6vectorIfSaIfEEaSERKS1_
.LBB14_2:                               # %if.then
	addi	sp, sp, -16
	.cfi_def_cfa_offset 16
	sw	ra, 12(sp)                      # 4-byte Folded Spill
	.cfi_offset ra, -4
	lui	a0, %hi(.L.str.2)
	addi	a0, a0, %lo(.L.str.2)
	call	printf
	li	a0, 1
	call	exit
.Lfunc_end14:
	.size	_ZN6TensorIfE7setDataESt6vectorIfSaIfEE, .Lfunc_end14-_ZN6TensorIfE7setDataESt6vectorIfSaIfEE
	.cfi_endproc
                                        # -- End function
	.section	.text._ZN6TensorIfE8setShapeESt6vectorIiSaIiEE,"axG",@progbits,_ZN6TensorIfE8setShapeESt6vectorIiSaIiEE,comdat
	.weak	_ZN6TensorIfE8setShapeESt6vectorIiSaIiEE # -- Begin function _ZN6TensorIfE8setShapeESt6vectorIiSaIiEE
	.p2align	1
	.type	_ZN6TensorIfE8setShapeESt6vectorIiSaIiEE,@function
_ZN6TensorIfE8setShapeESt6vectorIiSaIiEE: # @_ZN6TensorIfE8setShapeESt6vectorIiSaIiEE
	.cfi_startproc
# %bb.0:                                # %entry
	lw	a2, 0(a0)
	lw	a3, 4(a0)
	bne	a3, a2, .LBB15_2
# %bb.1:                                # %if.end
	addi	a0, a0, 12
	tail	_ZNSt6vectorIiSaIiEEaSERKS1_
.LBB15_2:                               # %if.then
	addi	sp, sp, -16
	.cfi_def_cfa_offset 16
	sw	ra, 12(sp)                      # 4-byte Folded Spill
	.cfi_offset ra, -4
	lui	a0, %hi(.L.str.3)
	addi	a0, a0, %lo(.L.str.3)
	call	printf
	li	a0, 1
	call	exit
.Lfunc_end15:
	.size	_ZN6TensorIfE8setShapeESt6vectorIiSaIiEE, .Lfunc_end15-_ZN6TensorIfE8setShapeESt6vectorIiSaIiEE
	.cfi_endproc
                                        # -- End function
	.section	.text._ZN6TensorIfE10expandDimsEi,"axG",@progbits,_ZN6TensorIfE10expandDimsEi,comdat
	.weak	_ZN6TensorIfE10expandDimsEi     # -- Begin function _ZN6TensorIfE10expandDimsEi
	.p2align	1
	.type	_ZN6TensorIfE10expandDimsEi,@function
_ZN6TensorIfE10expandDimsEi:            # @_ZN6TensorIfE10expandDimsEi
	.cfi_startproc
# %bb.0:                                # %entry
	addi	sp, sp, -16
	.cfi_def_cfa_offset 16
	sw	ra, 12(sp)                      # 4-byte Folded Spill
	sw	s0, 8(sp)                       # 4-byte Folded Spill
	.cfi_offset ra, -4
	.cfi_offset s0, -8
	.cfi_remember_state
	bltz	a1, .LBB16_12
# %bb.1:                                # %lor.lhs.false
	lw	s0, 12(a0)
	lw	a3, 16(a0)
	sub	a2, a3, s0
	srai	a2, a2, 2
	bltu	a2, a1, .LBB16_12
# %bb.2:                                # %if.end
	lw	a2, 20(a0)
	slli	a1, a1, 2
	add	s0, s0, a1
	li	a1, 1
	sw	a1, 4(sp)
	beq	a3, a2, .LBB16_7
# %bb.3:                                # %if.then.i.i
	beq	a3, s0, .LBB16_8
# %bb.4:                                # %if.else.i.i
	addi	a1, a3, -4
	lw	a4, -4(a3)
	addi	a2, a3, 4
	sw	a2, 16(a0)
	sub	a2, a1, s0
	srai	a0, a2, 2
	li	a5, 2
	sw	a4, 0(a3)
	blt	a0, a5, .LBB16_10
# %bb.5:                                # %if.then.i.i.i.i.i.i.i.i
	slli	a0, a0, 2
	sub	a0, a3, a0
	mv	a1, s0
	call	memmove
.LBB16_6:                               # %_ZNSt6vectorIiSaIiEE13_M_insert_auxIiEEvN9__gnu_cxx17__normal_iteratorIPiS1_EEOT_.exit.i.i
	lw	a0, 4(sp)
	sw	a0, 0(s0)
	j	.LBB16_9
.LBB16_7:                               # %if.else25.i.i
	addi	a0, a0, 12
	addi	a2, sp, 4
	mv	a1, s0
	call	_ZNSt6vectorIiSaIiEE17_M_realloc_insertIJiEEEvN9__gnu_cxx17__normal_iteratorIPiS1_EEDpOT_
	j	.LBB16_9
.LBB16_8:                               # %if.then11.i.i
	li	a1, 1
	sw	a1, 0(a3)
	addi	a3, a3, 4
	sw	a3, 16(a0)
.LBB16_9:                               # %_ZNSt6vectorIiSaIiEE6insertEN9__gnu_cxx17__normal_iteratorIPKiS1_EEOi.exit
	lw	ra, 12(sp)                      # 4-byte Folded Reload
	lw	s0, 8(sp)                       # 4-byte Folded Reload
	.cfi_restore ra
	.cfi_restore s0
	addi	sp, sp, 16
	.cfi_def_cfa_offset 0
	ret
.LBB16_10:                              # %if.else.i.i.i.i.i.i.i.i
	.cfi_restore_state
	li	a0, 4
	bne	a2, a0, .LBB16_6
# %bb.11:                               # %if.then2.i.i.i.i.i.i.i.i
	lw	a0, 0(s0)
	sw	a0, 0(a1)
	j	.LBB16_6
.LBB16_12:                              # %if.then
	lui	a0, %hi(.L.str.4)
	addi	a0, a0, %lo(.L.str.4)
	call	printf
	li	a0, 1
	call	exit
.Lfunc_end16:
	.size	_ZN6TensorIfE10expandDimsEi, .Lfunc_end16-_ZN6TensorIfE10expandDimsEi
	.cfi_endproc
                                        # -- End function
	.section	.text._ZNK6TensorIfE9transposeEv,"axG",@progbits,_ZNK6TensorIfE9transposeEv,comdat
	.weak	_ZNK6TensorIfE9transposeEv      # -- Begin function _ZNK6TensorIfE9transposeEv
	.p2align	1
	.type	_ZNK6TensorIfE9transposeEv,@function
_ZNK6TensorIfE9transposeEv:             # @_ZNK6TensorIfE9transposeEv
.Lfunc_begin6:
	.cfi_startproc
	.cfi_personality 155, DW.ref.__gxx_personality_v0
	.cfi_lsda 27, .Lexception6
# %bb.0:                                # %entry
	addi	sp, sp, -96
	.cfi_def_cfa_offset 96
	sw	ra, 92(sp)                      # 4-byte Folded Spill
	sw	s0, 88(sp)                      # 4-byte Folded Spill
	sw	s1, 84(sp)                      # 4-byte Folded Spill
	sw	s2, 80(sp)                      # 4-byte Folded Spill
	sw	s3, 76(sp)                      # 4-byte Folded Spill
	sw	s4, 72(sp)                      # 4-byte Folded Spill
	sw	s5, 68(sp)                      # 4-byte Folded Spill
	sw	s6, 64(sp)                      # 4-byte Folded Spill
	sw	s7, 60(sp)                      # 4-byte Folded Spill
	sw	s8, 56(sp)                      # 4-byte Folded Spill
	sw	s9, 52(sp)                      # 4-byte Folded Spill
	sw	s10, 48(sp)                     # 4-byte Folded Spill
	sw	s11, 44(sp)                     # 4-byte Folded Spill
	.cfi_offset ra, -4
	.cfi_offset s0, -8
	.cfi_offset s1, -12
	.cfi_offset s2, -16
	.cfi_offset s3, -20
	.cfi_offset s4, -24
	.cfi_offset s5, -28
	.cfi_offset s6, -32
	.cfi_offset s7, -36
	.cfi_offset s8, -40
	.cfi_offset s9, -44
	.cfi_offset s10, -48
	.cfi_offset s11, -52
	.cfi_remember_state
	mv	s4, a1
	lw	a1, 12(a1)
	lw	a2, 16(s4)
	sub	a2, a2, a1
	li	a1, 8
	bne	a2, a1, .LBB17_52
# %bb.1:                                # %if.end
	mv	s2, a0
	lw	a0, 0(s4)
	lw	a1, 4(s4)
	lui	a2, 524288
	sub	s0, a1, a0
	addi	a2, a2, -3
	bgeu	s0, a2, .LBB17_53
# %bb.2:                                # %if.end.i
	beq	a1, a0, .LBB17_5
# %bb.3:                                # %if.then4.i
.Ltmp76:
	mv	a0, s0
	call	_Znwj
.Ltmp77:
# %bb.4:                                # %_ZNSt12_Vector_baseIfSaIfEE13_M_deallocateEPfj.exit.i
	mv	s6, a0
	add	s7, a0, s0
	j	.LBB17_6
.LBB17_5:
	li	s6, 0
	li	s7, 0
.LBB17_6:                               # %invoke.cont
	lw	a0, 12(s4)
	lw	s0, 0(a0)
	lw	s1, 4(a0)
.Ltmp78:
	li	a0, 8
	call	_Znwj
.Ltmp79:
# %bb.7:                                # %_ZNSt6vectorIiSaIiEEC2ESt16initializer_listIiERKS0_.exit
	sw	s2, 8(sp)                       # 4-byte Folded Spill
	lw	a1, 12(s4)
	sw	s1, 0(a0)
	sw	a0, 12(sp)                      # 4-byte Folded Spill
	sw	s0, 4(a0)
	lw	a0, 4(a1)
	blez	a0, .LBB17_27
# %bb.8:                                # %for.cond14.preheader.preheader
	li	a2, 0
	lui	s9, 524288
	lui	s10, 131072
	addi	s9, s9, -4
	addi	s10, s10, -1
	mv	s0, s6
	j	.LBB17_11
.LBB17_9:                               #   in Loop: Header=BB17_11 Depth=1
	mv	s5, s6
.LBB17_10:                              # %for.cond.cleanup18
                                        #   in Loop: Header=BB17_11 Depth=1
	lw	a0, 12(s4)
	lw	a0, 4(a0)
	lw	a2, 16(sp)                      # 4-byte Folded Reload
	addi	a2, a2, 1
	mv	s6, s5
	bge	a2, a0, .LBB17_28
.LBB17_11:                              # %for.cond14.preheader
                                        # =>This Loop Header: Depth=1
                                        #     Child Loop BB17_15 Depth 2
	lw	a0, 12(s4)
	lw	a1, 0(a0)
	sw	a2, 16(sp)                      # 4-byte Folded Spill
	blez	a1, .LBB17_9
# %bb.12:                               # %for.body19.preheader
                                        #   in Loop: Header=BB17_11 Depth=1
	li	s2, 0
	slli	s8, a2, 2
	j	.LBB17_15
.LBB17_13:                              # %if.then.i79
                                        #   in Loop: Header=BB17_15 Depth=2
	flw	fa5, 0(s3)
	fsw	fa5, 0(s0)
	mv	s5, s6
.LBB17_14:                              # %for.inc
                                        #   in Loop: Header=BB17_15 Depth=2
	lw	a0, 12(s4)
	lw	a1, 0(a0)
	addi	s2, s2, 1
	addi	s0, s0, 4
	bge	s2, a1, .LBB17_10
.LBB17_15:                              # %for.body19
                                        #   Parent Loop BB17_11 Depth=1
                                        # =>  This Inner Loop Header: Depth=2
	lw	a0, 4(a0)
	lw	a1, 0(s4)
	mul	a0, a0, s2
	slli	a0, a0, 2
	add	a1, a1, s8
	add	s3, a1, a0
	bne	s0, s7, .LBB17_13
# %bb.16:                               # %if.else.i
                                        #   in Loop: Header=BB17_15 Depth=2
	sub	s1, s0, s6
	beq	s1, s9, .LBB17_50
# %bb.17:                               # %_ZNKSt6vectorIfSaIfEE12_M_check_lenEjPKc.exit.i.i
                                        #   in Loop: Header=BB17_15 Depth=2
	srai	a1, s1, 2
	seqz	a0, a1
	add	a0, a0, a1
	add	a1, a1, a0
	mv	a2, a1
	bltu	a1, s10, .LBB17_19
# %bb.18:                               # %_ZNKSt6vectorIfSaIfEE12_M_check_lenEjPKc.exit.i.i
                                        #   in Loop: Header=BB17_15 Depth=2
	mv	a2, s10
.LBB17_19:                              # %_ZNKSt6vectorIfSaIfEE12_M_check_lenEjPKc.exit.i.i
                                        #   in Loop: Header=BB17_15 Depth=2
	mv	s11, s10
	bltu	a1, a0, .LBB17_21
# %bb.20:                               # %_ZNKSt6vectorIfSaIfEE12_M_check_lenEjPKc.exit.i.i
                                        #   in Loop: Header=BB17_15 Depth=2
	mv	s11, a2
.LBB17_21:                              # %_ZNKSt6vectorIfSaIfEE12_M_check_lenEjPKc.exit.i.i
                                        #   in Loop: Header=BB17_15 Depth=2
	slli	s11, s11, 2
.Ltmp81:
	mv	a0, s11
	call	_Znwj
.Ltmp82:
# %bb.22:                               # %call5.i.i.i.i.noexc
                                        #   in Loop: Header=BB17_15 Depth=2
	mv	s5, a0
	flw	fa5, 0(s3)
	add	s0, a0, s1
	fsw	fa5, 0(s0)
	blez	s1, .LBB17_24
# %bb.23:                               # %if.then.i.i.i.i.i86
                                        #   in Loop: Header=BB17_15 Depth=2
	mv	a0, s5
	mv	a1, s6
	mv	a2, s1
	call	memcpy
.LBB17_24:                              # %_ZNSt6vectorIfSaIfEE11_S_relocateEPfS2_S2_RS0_.exit.i.i
                                        #   in Loop: Header=BB17_15 Depth=2
	beqz	s6, .LBB17_26
# %bb.25:                               # %if.then.i36.i.i
                                        #   in Loop: Header=BB17_15 Depth=2
	sub	a1, s7, s6
	mv	a0, s6
	call	_ZdlPvj
.LBB17_26:                              # %_ZNSt6vectorIfSaIfEE17_M_realloc_appendIJRKfEEEvDpOT_.exit.i
                                        #   in Loop: Header=BB17_15 Depth=2
	add	s7, s5, s11
	mv	s6, s5
	j	.LBB17_14
.LBB17_27:
	mv	s0, s6
	mv	s5, s6
.LBB17_28:                              # %for.cond.cleanup
	sub	s1, s0, s5
	sw	zero, 32(sp)
	sw	zero, 36(sp)
	sw	zero, 40(sp)
	beq	s0, s5, .LBB17_31
# %bb.29:                               # %cond.true.i.i.i.i
	srai	a0, s1, 2
	srli	a1, a0, 29
	lw	s3, 12(sp)                      # 4-byte Folded Reload
	bnez	a1, .LBB17_45
# %bb.30:                               # %_ZNSt15__new_allocatorIfE8allocateEjPKv.exit.i.i.i.i
.Ltmp84:
	mv	a0, s1
	call	_Znwj
.Ltmp85:
	j	.LBB17_32
.LBB17_31:
	li	a0, 0
	lw	s3, 12(sp)                      # 4-byte Folded Reload
.LBB17_32:                              # %_ZNSt12_Vector_baseIfSaIfEEC2EjRKS0_.exit.i
	add	s0, a0, s1
	li	a1, 5
	sw	a0, 32(sp)
	sw	a0, 36(sp)
	sw	s0, 40(sp)
	blt	s1, a1, .LBB17_43
# %bb.33:                               # %if.then.i.i.i.i.i.i.i.i.i
	mv	a1, s5
	mv	a2, s1
	call	memmove
.LBB17_34:                              # %_ZNSt6vectorIfSaIfEEC2ERKS1_.exit
	sw	s0, 36(sp)
	sw	zero, 20(sp)
	sw	zero, 24(sp)
	sw	zero, 28(sp)
.Ltmp91:
	li	a0, 8
	call	_Znwj
.Ltmp92:
# %bb.35:                               # %_ZNSt12_Vector_baseIiSaIiEEC2EjRKS0_.exit.i
	addi	a1, a0, 8
	lw	a2, 0(s3)
	lw	a3, 4(s3)
	sw	a0, 20(sp)
	sw	a1, 24(sp)
	sw	a1, 28(sp)
	sw	a2, 0(a0)
	sw	a3, 4(a0)
.Ltmp94:
	addi	a1, sp, 32
	addi	a2, sp, 20
	lw	a0, 8(sp)                       # 4-byte Folded Reload
	call	_ZN6TensorIfEC1ESt6vectorIfSaIfEES1_IiSaIiEE
.Ltmp95:
# %bb.36:                               # %invoke.cont36
	lw	a0, 20(sp)
	beqz	a0, .LBB17_38
# %bb.37:                               # %if.then.i.i.i119
	lw	a1, 28(sp)
	sub	a1, a1, a0
	call	_ZdlPvj
.LBB17_38:                              # %_ZNSt6vectorIiSaIiEED2Ev.exit
	lw	a0, 32(sp)
	beqz	a0, .LBB17_40
# %bb.39:                               # %if.then.i.i.i126
	lw	a1, 40(sp)
	sub	a1, a1, a0
	call	_ZdlPvj
.LBB17_40:                              # %if.then.i.i.i132
	li	a1, 8
	mv	a0, s3
	call	_ZdlPvj
	beqz	s5, .LBB17_42
# %bb.41:                               # %if.then.i.i.i140
	sub	a1, s7, s5
	mv	a0, s5
	call	_ZdlPvj
.LBB17_42:                              # %_ZNSt6vectorIfSaIfEED2Ev.exit145
	lw	ra, 92(sp)                      # 4-byte Folded Reload
	lw	s0, 88(sp)                      # 4-byte Folded Reload
	lw	s1, 84(sp)                      # 4-byte Folded Reload
	lw	s2, 80(sp)                      # 4-byte Folded Reload
	lw	s3, 76(sp)                      # 4-byte Folded Reload
	lw	s4, 72(sp)                      # 4-byte Folded Reload
	lw	s5, 68(sp)                      # 4-byte Folded Reload
	lw	s6, 64(sp)                      # 4-byte Folded Reload
	lw	s7, 60(sp)                      # 4-byte Folded Reload
	lw	s8, 56(sp)                      # 4-byte Folded Reload
	lw	s9, 52(sp)                      # 4-byte Folded Reload
	lw	s10, 48(sp)                     # 4-byte Folded Reload
	lw	s11, 44(sp)                     # 4-byte Folded Reload
	.cfi_restore ra
	.cfi_restore s0
	.cfi_restore s1
	.cfi_restore s2
	.cfi_restore s3
	.cfi_restore s4
	.cfi_restore s5
	.cfi_restore s6
	.cfi_restore s7
	.cfi_restore s8
	.cfi_restore s9
	.cfi_restore s10
	.cfi_restore s11
	addi	sp, sp, 96
	.cfi_def_cfa_offset 0
	ret
.LBB17_43:                              # %if.else.i.i.i.i.i.i.i.i.i
	.cfi_restore_state
	li	a1, 4
	bne	s1, a1, .LBB17_34
# %bb.44:                               # %if.then2.i.i.i.i.i.i.i.i.i
	flw	fa5, 0(s5)
	fsw	fa5, 0(a0)
	j	.LBB17_34
.LBB17_45:                              # %if.then.i.i.i.i.i
	srli	a0, a0, 30
	beqz	a0, .LBB17_48
# %bb.46:                               # %if.then3.i.i.i.i.i
.Ltmp88:
	call	_ZSt28__throw_bad_array_new_lengthv
.Ltmp89:
# %bb.47:                               # %.noexc72
.LBB17_48:                              # %if.end.i.i.i.i.i
.Ltmp86:
	call	_ZSt17__throw_bad_allocv
.Ltmp87:
# %bb.49:                               # %.noexc73
.LBB17_50:                              # %if.then.i.i.i
.Ltmp97:
	lui	a0, %hi(.L.str.28)
	addi	a0, a0, %lo(.L.str.28)
	call	_ZSt20__throw_length_errorPKc
.Ltmp98:
# %bb.51:                               # %.noexc87
.LBB17_52:                              # %if.then
	lui	a0, %hi(.L.str.5)
	addi	a0, a0, %lo(.L.str.5)
	call	printf
	li	a0, 1
	call	exit
.LBB17_53:                              # %if.then.i
.Ltmp100:
	lui	a0, %hi(.L.str.30)
	addi	a0, a0, %lo(.L.str.30)
	call	_ZSt20__throw_length_errorPKc
.Ltmp101:
# %bb.54:                               # %.noexc
.LBB17_55:                              # %lpad35
.Ltmp96:
	lw	a2, 20(sp)
	mv	s2, a0
	beqz	a2, .LBB17_58
# %bb.56:                               # %if.then.i.i.i147
	lw	a1, 28(sp)
	sub	a1, a1, a2
	mv	a0, a2
	call	_ZdlPvj
	j	.LBB17_58
.LBB17_57:                              # %lpad33
.Ltmp93:
	mv	s2, a0
.LBB17_58:                              # %ehcleanup
	lw	a0, 32(sp)
	beqz	a0, .LBB17_65
# %bb.59:                               # %if.then.i.i.i155
	lw	a1, 40(sp)
	sub	a1, a1, a0
	call	_ZdlPvj
	j	.LBB17_65
.LBB17_60:                              # %lpad.i
.Ltmp80:
	mv	s2, a0
	j	.LBB17_68
.LBB17_61:                              # %lpad
.Ltmp102:
	mv	s2, a0
	li	s6, 0
	li	s7, 0
	j	.LBB17_68
.LBB17_62:                              # %lpad24.loopexit
.Ltmp83:
	j	.LBB17_64
.LBB17_63:                              # %lpad24.loopexit.split-lp
.Ltmp99:
.LBB17_64:                              # %if.then.i.i.i162
	mv	s2, a0
	mv	s5, s6
.LBB17_65:                              # %if.then.i.i.i162
	lw	s3, 12(sp)                      # 4-byte Folded Reload
	j	.LBB17_67
.LBB17_66:                              # %lpad30
.Ltmp90:
	mv	s2, a0
.LBB17_67:                              # %if.then.i.i.i162
	li	a1, 8
	mv	a0, s3
	call	_ZdlPvj
	mv	s6, s5
.LBB17_68:                              # %ehcleanup39
	beqz	s6, .LBB17_70
# %bb.69:                               # %if.then.i.i.i170
	sub	a1, s7, s6
	mv	a0, s6
	call	_ZdlPvj
.LBB17_70:                              # %_ZNSt6vectorIfSaIfEED2Ev.exit175
	mv	a0, s2
	call	_Unwind_Resume
.Lfunc_end17:
	.size	_ZNK6TensorIfE9transposeEv, .Lfunc_end17-_ZNK6TensorIfE9transposeEv
	.cfi_endproc
	.section	.gcc_except_table._ZNK6TensorIfE9transposeEv,"aG",@progbits,_ZNK6TensorIfE9transposeEv,comdat
	.p2align	2, 0x0
GCC_except_table17:
.Lexception6:
	.byte	255                             # @LPStart Encoding = omit
	.byte	255                             # @TType Encoding = omit
	.byte	3                               # Call site Encoding = udata4
	.uleb128 .Lcst_end6-.Lcst_begin6
.Lcst_begin6:
	.word	.Ltmp76-.Lfunc_begin6           # >> Call Site 1 <<
	.word	.Ltmp77-.Ltmp76                 #   Call between .Ltmp76 and .Ltmp77
	.word	.Ltmp102-.Lfunc_begin6          #     jumps to .Ltmp102
	.byte	0                               #   On action: cleanup
	.word	.Ltmp78-.Lfunc_begin6           # >> Call Site 2 <<
	.word	.Ltmp79-.Ltmp78                 #   Call between .Ltmp78 and .Ltmp79
	.word	.Ltmp80-.Lfunc_begin6           #     jumps to .Ltmp80
	.byte	0                               #   On action: cleanup
	.word	.Ltmp81-.Lfunc_begin6           # >> Call Site 3 <<
	.word	.Ltmp82-.Ltmp81                 #   Call between .Ltmp81 and .Ltmp82
	.word	.Ltmp83-.Lfunc_begin6           #     jumps to .Ltmp83
	.byte	0                               #   On action: cleanup
	.word	.Ltmp82-.Lfunc_begin6           # >> Call Site 4 <<
	.word	.Ltmp84-.Ltmp82                 #   Call between .Ltmp82 and .Ltmp84
	.word	0                               #     has no landing pad
	.byte	0                               #   On action: cleanup
	.word	.Ltmp84-.Lfunc_begin6           # >> Call Site 5 <<
	.word	.Ltmp85-.Ltmp84                 #   Call between .Ltmp84 and .Ltmp85
	.word	.Ltmp90-.Lfunc_begin6           #     jumps to .Ltmp90
	.byte	0                               #   On action: cleanup
	.word	.Ltmp85-.Lfunc_begin6           # >> Call Site 6 <<
	.word	.Ltmp91-.Ltmp85                 #   Call between .Ltmp85 and .Ltmp91
	.word	0                               #     has no landing pad
	.byte	0                               #   On action: cleanup
	.word	.Ltmp91-.Lfunc_begin6           # >> Call Site 7 <<
	.word	.Ltmp92-.Ltmp91                 #   Call between .Ltmp91 and .Ltmp92
	.word	.Ltmp93-.Lfunc_begin6           #     jumps to .Ltmp93
	.byte	0                               #   On action: cleanup
	.word	.Ltmp94-.Lfunc_begin6           # >> Call Site 8 <<
	.word	.Ltmp95-.Ltmp94                 #   Call between .Ltmp94 and .Ltmp95
	.word	.Ltmp96-.Lfunc_begin6           #     jumps to .Ltmp96
	.byte	0                               #   On action: cleanup
	.word	.Ltmp88-.Lfunc_begin6           # >> Call Site 9 <<
	.word	.Ltmp87-.Ltmp88                 #   Call between .Ltmp88 and .Ltmp87
	.word	.Ltmp90-.Lfunc_begin6           #     jumps to .Ltmp90
	.byte	0                               #   On action: cleanup
	.word	.Ltmp97-.Lfunc_begin6           # >> Call Site 10 <<
	.word	.Ltmp98-.Ltmp97                 #   Call between .Ltmp97 and .Ltmp98
	.word	.Ltmp99-.Lfunc_begin6           #     jumps to .Ltmp99
	.byte	0                               #   On action: cleanup
	.word	.Ltmp98-.Lfunc_begin6           # >> Call Site 11 <<
	.word	.Ltmp100-.Ltmp98                #   Call between .Ltmp98 and .Ltmp100
	.word	0                               #     has no landing pad
	.byte	0                               #   On action: cleanup
	.word	.Ltmp100-.Lfunc_begin6          # >> Call Site 12 <<
	.word	.Ltmp101-.Ltmp100               #   Call between .Ltmp100 and .Ltmp101
	.word	.Ltmp102-.Lfunc_begin6          #     jumps to .Ltmp102
	.byte	0                               #   On action: cleanup
	.word	.Ltmp101-.Lfunc_begin6          # >> Call Site 13 <<
	.word	.Lfunc_end17-.Ltmp101           #   Call between .Ltmp101 and .Lfunc_end17
	.word	0                               #     has no landing pad
	.byte	0                               #   On action: cleanup
.Lcst_end6:
	.p2align	2, 0x0
                                        # -- End function
	.section	.text._ZNK6TensorIfE6matmulERKS0_,"axG",@progbits,_ZNK6TensorIfE6matmulERKS0_,comdat
	.weak	_ZNK6TensorIfE6matmulERKS0_     # -- Begin function _ZNK6TensorIfE6matmulERKS0_
	.p2align	1
	.type	_ZNK6TensorIfE6matmulERKS0_,@function
_ZNK6TensorIfE6matmulERKS0_:            # @_ZNK6TensorIfE6matmulERKS0_
.Lfunc_begin7:
	.cfi_startproc
	.cfi_personality 155, DW.ref.__gxx_personality_v0
	.cfi_lsda 27, .Lexception7
# %bb.0:                                # %entry
	addi	sp, sp, -112
	.cfi_def_cfa_offset 112
	sw	ra, 108(sp)                     # 4-byte Folded Spill
	sw	s0, 104(sp)                     # 4-byte Folded Spill
	sw	s1, 100(sp)                     # 4-byte Folded Spill
	sw	s2, 96(sp)                      # 4-byte Folded Spill
	sw	s3, 92(sp)                      # 4-byte Folded Spill
	sw	s4, 88(sp)                      # 4-byte Folded Spill
	sw	s5, 84(sp)                      # 4-byte Folded Spill
	sw	s6, 80(sp)                      # 4-byte Folded Spill
	sw	s7, 76(sp)                      # 4-byte Folded Spill
	sw	s8, 72(sp)                      # 4-byte Folded Spill
	sw	s9, 68(sp)                      # 4-byte Folded Spill
	sw	s10, 64(sp)                     # 4-byte Folded Spill
	sw	s11, 60(sp)                     # 4-byte Folded Spill
	.cfi_offset ra, -4
	.cfi_offset s0, -8
	.cfi_offset s1, -12
	.cfi_offset s2, -16
	.cfi_offset s3, -20
	.cfi_offset s4, -24
	.cfi_offset s5, -28
	.cfi_offset s6, -32
	.cfi_offset s7, -36
	.cfi_offset s8, -40
	.cfi_offset s9, -44
	.cfi_offset s10, -48
	.cfi_offset s11, -52
	.cfi_remember_state
	mv	s0, a2
	mv	s8, a1
	mv	s4, a0
	lw	s1, 0(a2)
	lw	a0, 4(a2)
	sub	s2, a0, s1
	beq	a0, s1, .LBB18_16
# %bb.1:                                # %cond.true.i.i.i.i
	srai	a0, s2, 2
	srli	a1, a0, 29
	bnez	a1, .LBB18_67
# %bb.2:                                # %_ZNSt15__new_allocatorIfE8allocateEjPKv.exit.i.i.i.i
	mv	a0, s2
	call	_Znwj
	mv	s3, a0
	li	a0, 5
	blt	s2, a0, .LBB18_17
.LBB18_3:                               # %if.then.i.i.i.i.i.i.i.i.i
	mv	a0, s3
	mv	a1, s1
	mv	a2, s2
	call	memmove
.LBB18_4:                               # %_ZNSt6vectorIfSaIfEEC2ERKS1_.exit
	lw	s1, 12(s0)
	lw	a0, 16(s0)
	sub	s5, a0, s1
	beq	a0, s1, .LBB18_19
# %bb.5:                                # %cond.true.i.i.i.i.i
	srai	a0, s5, 2
	srli	a1, a0, 29
	bnez	a1, .LBB18_69
# %bb.6:                                # %_ZNSt15__new_allocatorIiE8allocateEjPKv.exit.i.i.i.i.i
.Ltmp103:
	mv	a0, s5
	call	_Znwj
.Ltmp104:
# %bb.7:
	mv	s0, a0
	li	a0, 5
	blt	s5, a0, .LBB18_20
.LBB18_8:                               # %if.then.i.i.i.i.i.i.i.i.i.i
	mv	a0, s0
	mv	a1, s1
	mv	a2, s5
	call	memmove
.LBB18_9:                               # %invoke.cont
	li	a1, 8
	sw	s0, 28(sp)                      # 4-byte Folded Spill
	bne	s5, a1, .LBB18_82
# %bb.10:                               # %invoke.cont
	lw	a0, 12(s8)
	lw	a2, 16(s8)
	sub	a2, a2, a0
	bne	a2, a1, .LBB18_82
# %bb.11:                               # %if.end
	lw	a1, 4(a0)
	lw	a2, 0(s0)
	bne	a1, a2, .LBB18_83
# %bb.12:                               # %if.end20
	lw	a0, 0(a0)
	lw	a1, 4(s0)
	mul	s0, a1, a0
	srli	a0, s0, 29
	sw	s2, 0(sp)                       # 4-byte Folded Spill
	bnez	a0, .LBB18_86
# %bb.13:                               # %if.end.i
	beqz	s0, .LBB18_22
# %bb.14:                               # %if.then4.i
	slli	s0, s0, 2
.Ltmp113:
	mv	a0, s0
	call	_Znwj
.Ltmp114:
# %bb.15:                               # %_ZNSt12_Vector_baseIfSaIfEE13_M_deallocateEPfj.exit.i
	mv	s11, a0
	add	s6, a0, s0
	j	.LBB18_23
.LBB18_16:
	li	s3, 0
	li	a0, 5
	bge	s2, a0, .LBB18_3
.LBB18_17:                              # %if.else.i.i.i.i.i.i.i.i.i
	li	a0, 4
	bne	s2, a0, .LBB18_4
# %bb.18:                               # %if.then2.i.i.i.i.i.i.i.i.i
	flw	fa5, 0(s1)
	fsw	fa5, 0(s3)
	j	.LBB18_4
.LBB18_19:
	li	s0, 0
	li	a0, 5
	bge	s5, a0, .LBB18_8
.LBB18_20:                              # %if.else.i.i.i.i.i.i.i.i.i.i
	li	a0, 4
	bne	s5, a0, .LBB18_9
# %bb.21:                               # %if.then2.i.i.i.i.i.i.i.i.i.i
	lw	a0, 0(s1)
	sw	a0, 0(s0)
	j	.LBB18_9
.LBB18_22:
	li	s6, 0
	li	s11, 0
.LBB18_23:                              # %invoke.cont25
	lw	a0, 12(s8)
	lw	s0, 0(a0)
	lw	a0, 28(sp)                      # 4-byte Folded Reload
	lw	s1, 4(a0)
.Ltmp115:
	li	a0, 8
	call	_Znwj
.Ltmp116:
# %bb.24:                               # %_ZNSt6vectorIiSaIiEEC2ESt16initializer_listIiERKS0_.exit
	sw	s4, 4(sp)                       # 4-byte Folded Spill
	sw	s5, 12(sp)                      # 4-byte Folded Spill
	sw	s3, 16(sp)                      # 4-byte Folded Spill
	lw	a1, 12(s8)
	sw	s0, 0(a0)
	sw	a0, 8(sp)                       # 4-byte Folded Spill
	sw	s1, 4(a0)
	lw	a0, 0(a1)
	blez	a0, .LBB18_47
# %bb.25:                               # %for.cond35.preheader.preheader
	li	s4, 0
	li	a1, 0
	fmv.w.x	fa3, zero
	lui	s3, 524288
	lui	s5, 131072
	addi	s3, s3, -4
	addi	s5, s5, -1
	mv	s9, s11
	lw	s0, 28(sp)                      # 4-byte Folded Reload
	fsw	fa3, 24(sp)                     # 4-byte Folded Spill
	j	.LBB18_28
.LBB18_26:                              #   in Loop: Header=BB18_28 Depth=1
	mv	s10, s11
.LBB18_27:                              # %for.cond.cleanup38
                                        #   in Loop: Header=BB18_28 Depth=1
	lw	a0, 12(s8)
	lw	a0, 0(a0)
	lw	a1, 20(sp)                      # 4-byte Folded Reload
	addi	a1, a1, 1
	addi	s4, s4, 4
	mv	s11, s10
	bge	a1, a0, .LBB18_48
.LBB18_28:                              # %for.cond35.preheader
                                        # =>This Loop Header: Depth=1
                                        #     Child Loop BB18_32 Depth 2
                                        #       Child Loop BB18_34 Depth 3
	sw	a1, 20(sp)                      # 4-byte Folded Spill
	lw	a0, 4(s0)
	blez	a0, .LBB18_26
# %bb.29:                               # %for.cond40.preheader.preheader
                                        #   in Loop: Header=BB18_28 Depth=1
	li	s2, 0
	lw	s7, 16(sp)                      # 4-byte Folded Reload
	j	.LBB18_32
.LBB18_30:                              # %if.then.i168
                                        #   in Loop: Header=BB18_32 Depth=2
	fsw	fa2, 0(s9)
	mv	s10, s11
.LBB18_31:                              # %invoke.cont56
                                        #   in Loop: Header=BB18_32 Depth=2
	lw	a0, 4(s0)
	addi	s9, s9, 4
	addi	s2, s2, 1
	addi	s7, s7, 4
	bge	s2, a0, .LBB18_27
.LBB18_32:                              # %for.cond40.preheader
                                        #   Parent Loop BB18_28 Depth=1
                                        # =>  This Loop Header: Depth=2
                                        #       Child Loop BB18_34 Depth 3
	lw	a1, 12(s8)
	lw	a1, 4(a1)
	fmv.s	fa2, fa3
	blez	a1, .LBB18_35
# %bb.33:                               # %for.body45.lr.ph
                                        #   in Loop: Header=BB18_32 Depth=2
	lw	a2, 0(s8)
	slli	a0, a0, 2
	mul	a3, s4, a1
	add	a2, a2, a3
	mv	a3, s7
	fmv.s	fa2, fa3
.LBB18_34:                              # %for.body45
                                        #   Parent Loop BB18_28 Depth=1
                                        #     Parent Loop BB18_32 Depth=2
                                        # =>    This Inner Loop Header: Depth=3
	flw	fa5, 0(a2)
	flw	fa4, 0(a3)
	addi	a1, a1, -1
	add	a3, a3, a0
	fmadd.s	fa2, fa5, fa4, fa2
	addi	a2, a2, 4
	bnez	a1, .LBB18_34
.LBB18_35:                              # %for.cond.cleanup44
                                        #   in Loop: Header=BB18_32 Depth=2
	bne	s9, s6, .LBB18_30
# %bb.36:                               # %if.else.i
                                        #   in Loop: Header=BB18_32 Depth=2
	sub	s1, s9, s11
	beq	s1, s3, .LBB18_80
# %bb.37:                               # %_ZNKSt6vectorIfSaIfEE12_M_check_lenEjPKc.exit.i.i
                                        #   in Loop: Header=BB18_32 Depth=2
	srai	a1, s1, 2
	seqz	a0, a1
	add	a0, a0, a1
	add	a1, a1, a0
	mv	a2, a1
	bltu	a1, s5, .LBB18_39
# %bb.38:                               # %_ZNKSt6vectorIfSaIfEE12_M_check_lenEjPKc.exit.i.i
                                        #   in Loop: Header=BB18_32 Depth=2
	mv	a2, s5
.LBB18_39:                              # %_ZNKSt6vectorIfSaIfEE12_M_check_lenEjPKc.exit.i.i
                                        #   in Loop: Header=BB18_32 Depth=2
	fsw	fa2, 32(sp)                     # 4-byte Folded Spill
	mv	s0, s5
	bltu	a1, a0, .LBB18_41
# %bb.40:                               # %_ZNKSt6vectorIfSaIfEE12_M_check_lenEjPKc.exit.i.i
                                        #   in Loop: Header=BB18_32 Depth=2
	mv	s0, a2
.LBB18_41:                              # %_ZNKSt6vectorIfSaIfEE12_M_check_lenEjPKc.exit.i.i
                                        #   in Loop: Header=BB18_32 Depth=2
	slli	s0, s0, 2
.Ltmp118:
	mv	a0, s0
	call	_Znwj
.Ltmp119:
# %bb.42:                               # %call5.i.i.i.i.noexc
                                        #   in Loop: Header=BB18_32 Depth=2
	mv	s10, a0
	add	s9, a0, s1
	flw	fa5, 32(sp)                     # 4-byte Folded Reload
	fsw	fa5, 0(s9)
	blez	s1, .LBB18_44
# %bb.43:                               # %if.then.i.i.i.i.i175
                                        #   in Loop: Header=BB18_32 Depth=2
	mv	a0, s10
	mv	a1, s11
	mv	a2, s1
	call	memcpy
.LBB18_44:                              # %_ZNSt6vectorIfSaIfEE11_S_relocateEPfS2_S2_RS0_.exit.i.i
                                        #   in Loop: Header=BB18_32 Depth=2
	beqz	s11, .LBB18_46
# %bb.45:                               # %if.then.i36.i.i
                                        #   in Loop: Header=BB18_32 Depth=2
	sub	a1, s6, s11
	mv	a0, s11
	call	_ZdlPvj
.LBB18_46:                              # %_ZNSt6vectorIfSaIfEE17_M_realloc_appendIJRKfEEEvDpOT_.exit.i
                                        #   in Loop: Header=BB18_32 Depth=2
	add	s6, s10, s0
	mv	s11, s10
	lw	s0, 28(sp)                      # 4-byte Folded Reload
	flw	fa3, 24(sp)                     # 4-byte Folded Reload
	j	.LBB18_31
.LBB18_47:
	mv	s9, s11
	mv	s10, s11
	lw	s0, 28(sp)                      # 4-byte Folded Reload
.LBB18_48:                              # %for.cond.cleanup
	sub	s1, s9, s10
	sw	zero, 48(sp)
	sw	zero, 52(sp)
	sw	zero, 56(sp)
	beq	s9, s10, .LBB18_51
# %bb.49:                               # %cond.true.i.i.i.i141
	srai	a0, s1, 2
	srli	a1, a0, 29
	bnez	a1, .LBB18_72
# %bb.50:                               # %_ZNSt15__new_allocatorIfE8allocateEjPKv.exit.i.i.i.i143
.Ltmp121:
	mv	a0, s1
	lw	s3, 16(sp)                      # 4-byte Folded Reload
	lw	s5, 12(sp)                      # 4-byte Folded Reload
	lw	s2, 8(sp)                       # 4-byte Folded Reload
	call	_Znwj
.Ltmp122:
	j	.LBB18_52
.LBB18_51:
	li	a0, 0
	lw	s3, 16(sp)                      # 4-byte Folded Reload
	lw	s5, 12(sp)                      # 4-byte Folded Reload
	lw	s2, 8(sp)                       # 4-byte Folded Reload
.LBB18_52:                              # %_ZNSt12_Vector_baseIfSaIfEEC2EjRKS0_.exit.i145
	add	s0, a0, s1
	li	a1, 5
	sw	a0, 48(sp)
	sw	a0, 52(sp)
	sw	s0, 56(sp)
	blt	s1, a1, .LBB18_65
# %bb.53:                               # %if.then.i.i.i.i.i.i.i.i.i156
	mv	a1, s10
	mv	a2, s1
	call	memmove
.LBB18_54:                              # %_ZNSt6vectorIfSaIfEEC2ERKS1_.exit164
	sw	s0, 52(sp)
	sw	zero, 36(sp)
	sw	zero, 40(sp)
	sw	zero, 44(sp)
.Ltmp128:
	li	a0, 8
	call	_Znwj
.Ltmp129:
# %bb.55:                               # %_ZNSt12_Vector_baseIiSaIiEEC2EjRKS0_.exit.i
	addi	a1, a0, 8
	lw	a2, 0(s2)
	lw	a3, 4(s2)
	sw	a0, 36(sp)
	sw	a1, 40(sp)
	sw	a1, 44(sp)
	sw	a2, 0(a0)
	sw	a3, 4(a0)
.Ltmp131:
	addi	a1, sp, 48
	addi	a2, sp, 36
	lw	a0, 4(sp)                       # 4-byte Folded Reload
	lw	s0, 28(sp)                      # 4-byte Folded Reload
	call	_ZN6TensorIfEC1ESt6vectorIfSaIfEES1_IiSaIiEE
.Ltmp132:
# %bb.56:                               # %invoke.cont70
	lw	a0, 36(sp)
	beqz	a0, .LBB18_58
# %bb.57:                               # %if.then.i.i.i212
	lw	a1, 44(sp)
	sub	a1, a1, a0
	call	_ZdlPvj
.LBB18_58:                              # %_ZNSt6vectorIiSaIiEED2Ev.exit
	lw	a0, 48(sp)
	beqz	a0, .LBB18_60
# %bb.59:                               # %if.then.i.i.i219
	lw	a1, 56(sp)
	sub	a1, a1, a0
	call	_ZdlPvj
.LBB18_60:                              # %if.then.i.i.i225
	li	a1, 8
	mv	a0, s2
	call	_ZdlPvj
	beqz	s10, .LBB18_62
# %bb.61:                               # %if.then.i.i.i233
	sub	a1, s6, s10
	mv	a0, s10
	call	_ZdlPvj
.LBB18_62:                              # %if.then.i.i.i240
	mv	a0, s0
	mv	a1, s5
	call	_ZdlPvj
	beqz	s3, .LBB18_64
# %bb.63:                               # %if.then.i.i.i248
	mv	a0, s3
	lw	a1, 0(sp)                       # 4-byte Folded Reload
	call	_ZdlPvj
.LBB18_64:                              # %_ZNSt6vectorIfSaIfEED2Ev.exit253
	lw	ra, 108(sp)                     # 4-byte Folded Reload
	lw	s0, 104(sp)                     # 4-byte Folded Reload
	lw	s1, 100(sp)                     # 4-byte Folded Reload
	lw	s2, 96(sp)                      # 4-byte Folded Reload
	lw	s3, 92(sp)                      # 4-byte Folded Reload
	lw	s4, 88(sp)                      # 4-byte Folded Reload
	lw	s5, 84(sp)                      # 4-byte Folded Reload
	lw	s6, 80(sp)                      # 4-byte Folded Reload
	lw	s7, 76(sp)                      # 4-byte Folded Reload
	lw	s8, 72(sp)                      # 4-byte Folded Reload
	lw	s9, 68(sp)                      # 4-byte Folded Reload
	lw	s10, 64(sp)                     # 4-byte Folded Reload
	lw	s11, 60(sp)                     # 4-byte Folded Reload
	.cfi_restore ra
	.cfi_restore s0
	.cfi_restore s1
	.cfi_restore s2
	.cfi_restore s3
	.cfi_restore s4
	.cfi_restore s5
	.cfi_restore s6
	.cfi_restore s7
	.cfi_restore s8
	.cfi_restore s9
	.cfi_restore s10
	.cfi_restore s11
	addi	sp, sp, 112
	.cfi_def_cfa_offset 0
	ret
.LBB18_65:                              # %if.else.i.i.i.i.i.i.i.i.i152
	.cfi_restore_state
	li	a1, 4
	bne	s1, a1, .LBB18_54
# %bb.66:                               # %if.then2.i.i.i.i.i.i.i.i.i155
	flw	fa5, 0(s10)
	fsw	fa5, 0(a0)
	j	.LBB18_54
.LBB18_67:                              # %if.then.i.i.i.i.i
	srli	a0, a0, 30
	beqz	a0, .LBB18_75
# %bb.68:                               # %if.then3.i.i.i.i.i
	call	_ZSt28__throw_bad_array_new_lengthv
.LBB18_69:                              # %if.then.i.i.i.i.i.i
	srli	a0, a0, 30
	beqz	a0, .LBB18_76
# %bb.70:                               # %if.then3.i.i.i.i.i.i
.Ltmp107:
	call	_ZSt28__throw_bad_array_new_lengthv
.Ltmp108:
# %bb.71:                               # %.noexc
.LBB18_72:                              # %if.then.i.i.i.i.i157
	srli	a0, a0, 30
	lw	s3, 16(sp)                      # 4-byte Folded Reload
	lw	s5, 12(sp)                      # 4-byte Folded Reload
	lw	s2, 8(sp)                       # 4-byte Folded Reload
	beqz	a0, .LBB18_78
# %bb.73:                               # %if.then3.i.i.i.i.i160
.Ltmp125:
	call	_ZSt28__throw_bad_array_new_lengthv
.Ltmp126:
# %bb.74:                               # %.noexc161
.LBB18_75:                              # %if.end.i.i.i.i.i
	call	_ZSt17__throw_bad_allocv
.LBB18_76:                              # %if.end.i.i.i.i.i.i
.Ltmp105:
	call	_ZSt17__throw_bad_allocv
.Ltmp106:
# %bb.77:                               # %.noexc96
.LBB18_78:                              # %if.end.i.i.i.i.i159
.Ltmp123:
	call	_ZSt17__throw_bad_allocv
.Ltmp124:
# %bb.79:                               # %.noexc162
.LBB18_80:                              # %if.then.i.i.i
.Ltmp134:
	lui	a0, %hi(.L.str.28)
	addi	a0, a0, %lo(.L.str.28)
	lw	s3, 16(sp)                      # 4-byte Folded Reload
	lw	s5, 12(sp)                      # 4-byte Folded Reload
	lw	s2, 8(sp)                       # 4-byte Folded Reload
	call	_ZSt20__throw_length_errorPKc
.Ltmp135:
# %bb.81:                               # %.noexc176
.LBB18_82:                              # %if.then
	lui	a0, %hi(.L.str.6)
	addi	a0, a0, %lo(.L.str.6)
	call	printf
	j	.LBB18_84
.LBB18_83:                              # %if.then13
	lui	a0, %hi(.L.str.7)
	addi	a0, a0, %lo(.L.str.7)
	call	printf
.LBB18_84:                              # %if.then13.invoke
.Ltmp110:
	li	a0, 1
	call	exit
.Ltmp111:
# %bb.85:                               # %if.then13.cont
.LBB18_86:                              # %if.then.i
.Ltmp137:
	lui	a0, %hi(.L.str.30)
	addi	a0, a0, %lo(.L.str.30)
	call	_ZSt20__throw_length_errorPKc
.Ltmp138:
# %bb.87:                               # %.noexc116
.LBB18_88:                              # %lpad69
.Ltmp133:
	lw	a2, 36(sp)
	mv	s4, a0
	beqz	a2, .LBB18_91
# %bb.89:                               # %if.then.i.i.i255
	lw	a1, 44(sp)
	sub	a1, a1, a2
	mv	a0, a2
	call	_ZdlPvj
	j	.LBB18_91
.LBB18_90:                              # %lpad67
.Ltmp130:
	mv	s4, a0
.LBB18_91:                              # %ehcleanup
	lw	a0, 48(sp)
	beqz	a0, .LBB18_97
# %bb.92:                               # %if.then.i.i.i263
	lw	a1, 56(sp)
	sub	a1, a1, a0
	call	_ZdlPvj
	j	.LBB18_97
.LBB18_93:                              # %lpad.i
.Ltmp117:
	mv	s4, a0
	lw	s0, 28(sp)                      # 4-byte Folded Reload
	j	.LBB18_101
.LBB18_94:                              # %lpad24
.Ltmp139:
	mv	s4, a0
	li	s6, 0
	li	s11, 0
	lw	s0, 28(sp)                      # 4-byte Folded Reload
	j	.LBB18_101
.LBB18_95:                              # %lpad5
.Ltmp112:
	mv	s4, a0
	lw	s0, 28(sp)                      # 4-byte Folded Reload
	beqz	s0, .LBB18_103
	j	.LBB18_106
.LBB18_96:                              # %lpad55.loopexit
.Ltmp120:
	mv	s4, a0
	mv	s10, s11
.LBB18_97:                              # %if.then.i.i.i270
	lw	s3, 16(sp)                      # 4-byte Folded Reload
	lw	s5, 12(sp)                      # 4-byte Folded Reload
	lw	s0, 28(sp)                      # 4-byte Folded Reload
	lw	s2, 8(sp)                       # 4-byte Folded Reload
	j	.LBB18_100
.LBB18_98:                              # %lpad55.loopexit.split-lp
.Ltmp136:
	mv	s4, a0
	mv	s10, s11
	j	.LBB18_100
.LBB18_99:                              # %lpad64
.Ltmp127:
	mv	s4, a0
.LBB18_100:                             # %if.then.i.i.i270
	li	a1, 8
	mv	a0, s2
	call	_ZdlPvj
	mv	s11, s10
.LBB18_101:                             # %ehcleanup73
	lw	s2, 0(sp)                       # 4-byte Folded Reload
	bnez	s11, .LBB18_105
# %bb.102:                              # %ehcleanup75
	bnez	s0, .LBB18_106
.LBB18_103:                             # %ehcleanup76
	bnez	s3, .LBB18_108
.LBB18_104:                             # %_ZNSt6vectorIfSaIfEED2Ev.exit298
	mv	a0, s4
	call	_Unwind_Resume
.LBB18_105:                             # %if.then.i.i.i278
	sub	a1, s6, s11
	mv	a0, s11
	call	_ZdlPvj
	beqz	s0, .LBB18_103
.LBB18_106:                             # %if.then.i.i.i285
	mv	a0, s0
	mv	a1, s5
	call	_ZdlPvj
	beqz	s3, .LBB18_104
	j	.LBB18_108
.LBB18_107:                             # %lpad
.Ltmp109:
	mv	s4, a0
	beqz	s3, .LBB18_104
.LBB18_108:                             # %if.then.i.i.i293
	mv	a0, s3
	mv	a1, s2
	call	_ZdlPvj
	mv	a0, s4
	call	_Unwind_Resume
.Lfunc_end18:
	.size	_ZNK6TensorIfE6matmulERKS0_, .Lfunc_end18-_ZNK6TensorIfE6matmulERKS0_
	.cfi_endproc
	.section	.gcc_except_table._ZNK6TensorIfE6matmulERKS0_,"aG",@progbits,_ZNK6TensorIfE6matmulERKS0_,comdat
	.p2align	2, 0x0
GCC_except_table18:
.Lexception7:
	.byte	255                             # @LPStart Encoding = omit
	.byte	255                             # @TType Encoding = omit
	.byte	3                               # Call site Encoding = udata4
	.uleb128 .Lcst_end7-.Lcst_begin7
.Lcst_begin7:
	.word	.Lfunc_begin7-.Lfunc_begin7     # >> Call Site 1 <<
	.word	.Ltmp103-.Lfunc_begin7          #   Call between .Lfunc_begin7 and .Ltmp103
	.word	0                               #     has no landing pad
	.byte	0                               #   On action: cleanup
	.word	.Ltmp103-.Lfunc_begin7          # >> Call Site 2 <<
	.word	.Ltmp104-.Ltmp103               #   Call between .Ltmp103 and .Ltmp104
	.word	.Ltmp109-.Lfunc_begin7          #     jumps to .Ltmp109
	.byte	0                               #   On action: cleanup
	.word	.Ltmp104-.Lfunc_begin7          # >> Call Site 3 <<
	.word	.Ltmp113-.Ltmp104               #   Call between .Ltmp104 and .Ltmp113
	.word	0                               #     has no landing pad
	.byte	0                               #   On action: cleanup
	.word	.Ltmp113-.Lfunc_begin7          # >> Call Site 4 <<
	.word	.Ltmp114-.Ltmp113               #   Call between .Ltmp113 and .Ltmp114
	.word	.Ltmp139-.Lfunc_begin7          #     jumps to .Ltmp139
	.byte	0                               #   On action: cleanup
	.word	.Ltmp115-.Lfunc_begin7          # >> Call Site 5 <<
	.word	.Ltmp116-.Ltmp115               #   Call between .Ltmp115 and .Ltmp116
	.word	.Ltmp117-.Lfunc_begin7          #     jumps to .Ltmp117
	.byte	0                               #   On action: cleanup
	.word	.Ltmp118-.Lfunc_begin7          # >> Call Site 6 <<
	.word	.Ltmp119-.Ltmp118               #   Call between .Ltmp118 and .Ltmp119
	.word	.Ltmp120-.Lfunc_begin7          #     jumps to .Ltmp120
	.byte	0                               #   On action: cleanup
	.word	.Ltmp119-.Lfunc_begin7          # >> Call Site 7 <<
	.word	.Ltmp121-.Ltmp119               #   Call between .Ltmp119 and .Ltmp121
	.word	0                               #     has no landing pad
	.byte	0                               #   On action: cleanup
	.word	.Ltmp121-.Lfunc_begin7          # >> Call Site 8 <<
	.word	.Ltmp122-.Ltmp121               #   Call between .Ltmp121 and .Ltmp122
	.word	.Ltmp127-.Lfunc_begin7          #     jumps to .Ltmp127
	.byte	0                               #   On action: cleanup
	.word	.Ltmp122-.Lfunc_begin7          # >> Call Site 9 <<
	.word	.Ltmp128-.Ltmp122               #   Call between .Ltmp122 and .Ltmp128
	.word	0                               #     has no landing pad
	.byte	0                               #   On action: cleanup
	.word	.Ltmp128-.Lfunc_begin7          # >> Call Site 10 <<
	.word	.Ltmp129-.Ltmp128               #   Call between .Ltmp128 and .Ltmp129
	.word	.Ltmp130-.Lfunc_begin7          #     jumps to .Ltmp130
	.byte	0                               #   On action: cleanup
	.word	.Ltmp131-.Lfunc_begin7          # >> Call Site 11 <<
	.word	.Ltmp132-.Ltmp131               #   Call between .Ltmp131 and .Ltmp132
	.word	.Ltmp133-.Lfunc_begin7          #     jumps to .Ltmp133
	.byte	0                               #   On action: cleanup
	.word	.Ltmp132-.Lfunc_begin7          # >> Call Site 12 <<
	.word	.Ltmp107-.Ltmp132               #   Call between .Ltmp132 and .Ltmp107
	.word	0                               #     has no landing pad
	.byte	0                               #   On action: cleanup
	.word	.Ltmp107-.Lfunc_begin7          # >> Call Site 13 <<
	.word	.Ltmp108-.Ltmp107               #   Call between .Ltmp107 and .Ltmp108
	.word	.Ltmp109-.Lfunc_begin7          #     jumps to .Ltmp109
	.byte	0                               #   On action: cleanup
	.word	.Ltmp125-.Lfunc_begin7          # >> Call Site 14 <<
	.word	.Ltmp126-.Ltmp125               #   Call between .Ltmp125 and .Ltmp126
	.word	.Ltmp127-.Lfunc_begin7          #     jumps to .Ltmp127
	.byte	0                               #   On action: cleanup
	.word	.Ltmp126-.Lfunc_begin7          # >> Call Site 15 <<
	.word	.Ltmp105-.Ltmp126               #   Call between .Ltmp126 and .Ltmp105
	.word	0                               #     has no landing pad
	.byte	0                               #   On action: cleanup
	.word	.Ltmp105-.Lfunc_begin7          # >> Call Site 16 <<
	.word	.Ltmp106-.Ltmp105               #   Call between .Ltmp105 and .Ltmp106
	.word	.Ltmp109-.Lfunc_begin7          #     jumps to .Ltmp109
	.byte	0                               #   On action: cleanup
	.word	.Ltmp123-.Lfunc_begin7          # >> Call Site 17 <<
	.word	.Ltmp124-.Ltmp123               #   Call between .Ltmp123 and .Ltmp124
	.word	.Ltmp127-.Lfunc_begin7          #     jumps to .Ltmp127
	.byte	0                               #   On action: cleanup
	.word	.Ltmp134-.Lfunc_begin7          # >> Call Site 18 <<
	.word	.Ltmp135-.Ltmp134               #   Call between .Ltmp134 and .Ltmp135
	.word	.Ltmp136-.Lfunc_begin7          #     jumps to .Ltmp136
	.byte	0                               #   On action: cleanup
	.word	.Ltmp110-.Lfunc_begin7          # >> Call Site 19 <<
	.word	.Ltmp111-.Ltmp110               #   Call between .Ltmp110 and .Ltmp111
	.word	.Ltmp112-.Lfunc_begin7          #     jumps to .Ltmp112
	.byte	0                               #   On action: cleanup
	.word	.Ltmp137-.Lfunc_begin7          # >> Call Site 20 <<
	.word	.Ltmp138-.Ltmp137               #   Call between .Ltmp137 and .Ltmp138
	.word	.Ltmp139-.Lfunc_begin7          #     jumps to .Ltmp139
	.byte	0                               #   On action: cleanup
	.word	.Ltmp138-.Lfunc_begin7          # >> Call Site 21 <<
	.word	.Lfunc_end18-.Ltmp138           #   Call between .Ltmp138 and .Lfunc_end18
	.word	0                               #     has no landing pad
	.byte	0                               #   On action: cleanup
.Lcst_end7:
	.p2align	2, 0x0
                                        # -- End function
	.section	.text._ZNK6TensorIfE3mulERKS0_,"axG",@progbits,_ZNK6TensorIfE3mulERKS0_,comdat
	.weak	_ZNK6TensorIfE3mulERKS0_        # -- Begin function _ZNK6TensorIfE3mulERKS0_
	.p2align	1
	.type	_ZNK6TensorIfE3mulERKS0_,@function
_ZNK6TensorIfE3mulERKS0_:               # @_ZNK6TensorIfE3mulERKS0_
.Lfunc_begin8:
	.cfi_startproc
	.cfi_personality 155, DW.ref.__gxx_personality_v0
	.cfi_lsda 27, .Lexception8
# %bb.0:                                # %entry
	addi	sp, sp, -80
	.cfi_def_cfa_offset 80
	sw	ra, 76(sp)                      # 4-byte Folded Spill
	sw	s0, 72(sp)                      # 4-byte Folded Spill
	sw	s1, 68(sp)                      # 4-byte Folded Spill
	sw	s2, 64(sp)                      # 4-byte Folded Spill
	sw	s3, 60(sp)                      # 4-byte Folded Spill
	sw	s4, 56(sp)                      # 4-byte Folded Spill
	sw	s5, 52(sp)                      # 4-byte Folded Spill
	sw	s6, 48(sp)                      # 4-byte Folded Spill
	sw	s7, 44(sp)                      # 4-byte Folded Spill
	sw	s8, 40(sp)                      # 4-byte Folded Spill
	sw	s9, 36(sp)                      # 4-byte Folded Spill
	sw	s10, 32(sp)                     # 4-byte Folded Spill
	sw	s11, 28(sp)                     # 4-byte Folded Spill
	.cfi_offset ra, -4
	.cfi_offset s0, -8
	.cfi_offset s1, -12
	.cfi_offset s2, -16
	.cfi_offset s3, -20
	.cfi_offset s4, -24
	.cfi_offset s5, -28
	.cfi_offset s6, -32
	.cfi_offset s7, -36
	.cfi_offset s8, -40
	.cfi_offset s9, -44
	.cfi_offset s10, -48
	.cfi_offset s11, -52
	.cfi_remember_state
	mv	s1, a2
	mv	s7, a1
	mv	s2, a0
	lw	s4, 0(a2)
	lw	a0, 4(a2)
	sub	s0, a0, s4
	beq	a0, s4, .LBB19_3
# %bb.1:                                # %cond.true.i.i.i.i
	srai	a0, s0, 2
	srli	a1, a0, 29
	bnez	a1, .LBB19_60
# %bb.2:                                # %_ZNSt15__new_allocatorIfE8allocateEjPKv.exit.i.i.i.i
	mv	a0, s0
	call	_Znwj
	mv	s3, a0
	j	.LBB19_4
.LBB19_3:
	li	s3, 0
.LBB19_4:                               # %_ZNSt12_Vector_baseIfSaIfEEC2EjRKS0_.exit.i
	li	a0, 5
	sw	s0, 0(sp)                       # 4-byte Folded Spill
	blt	s0, a0, .LBB19_54
# %bb.5:                                # %if.then.i.i.i.i.i.i.i.i.i
	mv	a0, s3
	mv	a1, s4
	mv	a2, s0
	call	memmove
.LBB19_6:                               # %_ZNSt6vectorIfSaIfEEC2ERKS1_.exit
	lw	s0, 12(s1)
	lw	a0, 16(s1)
	sub	s6, a0, s0
	beq	a0, s0, .LBB19_14
# %bb.7:                                # %cond.true.i.i.i.i.i
	srai	a0, s6, 2
	srli	a1, a0, 29
	bnez	a1, .LBB19_62
# %bb.8:                                # %_ZNSt15__new_allocatorIiE8allocateEjPKv.exit.i.i.i.i.i
.Ltmp140:
	mv	a0, s6
	call	_Znwj
.Ltmp141:
# %bb.9:
	mv	s5, a0
	li	a0, 5
	blt	s6, a0, .LBB19_15
.LBB19_10:                              # %if.then.i.i.i.i.i.i.i.i.i.i
	mv	a0, s5
	mv	a1, s0
	mv	a2, s6
	call	memmove
.LBB19_11:                              # %invoke.cont
	lw	s9, 12(s7)
	lw	s11, 16(s7)
	sub	s10, s11, s9
	bne	s10, s6, .LBB19_83
# %bb.12:                               # %land.rhs.i.i
	beq	s11, s9, .LBB19_17
# %bb.13:                               # %if.then.i.i.i.i.i.i45
	mv	a0, s9
	mv	a1, s5
	mv	a2, s10
	call	memcmp
	seqz	a0, a0
	bne	s11, s9, .LBB19_18
	j	.LBB19_19
.LBB19_14:
	li	s5, 0
	li	a0, 5
	bge	s6, a0, .LBB19_10
.LBB19_15:                              # %if.else.i.i.i.i.i.i.i.i.i.i
	li	a0, 4
	bne	s6, a0, .LBB19_11
# %bb.16:                               # %if.then2.i.i.i.i.i.i.i.i.i.i
	lw	a0, 0(s0)
	sw	a0, 0(s5)
	j	.LBB19_11
.LBB19_17:
                                        # implicit-def: $x10
	beq	s11, s9, .LBB19_19
.LBB19_18:                              # %_ZSt5equalIN9__gnu_cxx17__normal_iteratorIPKiSt6vectorIiSaIiEEEES7_EbT_S8_T0_.exit.i.i
	andi	a0, a0, 1
	beqz	a0, .LBB19_83
.LBB19_19:                              # %if.end
	lw	s1, 0(s7)
	lw	s4, 4(s7)
	sub	s8, s4, s1
	srai	s0, s8, 2
	beq	s4, s1, .LBB19_30
# %bb.20:                               # %cond.true.i.i.i.i54
	srli	a0, s0, 29
	bnez	a0, .LBB19_65
# %bb.21:                               # %_ZNSt15__new_allocatorIfE8allocateEjPKv.exit.i.i.i.i56
.Ltmp150:
	mv	a0, s8
	call	_Znwj
.Ltmp151:
# %bb.22:
	mv	s7, a0
	li	a0, 5
	blt	s8, a0, .LBB19_31
.LBB19_23:                              # %if.then.i.i.i.i.i.i.i.i.i69
	mv	a0, s7
	mv	a1, s1
	mv	a2, s8
	call	memmove
.LBB19_24:                              # %_ZNSt6vectorIfSaIfEEC2ERKS1_.exit77
	beq	s4, s1, .LBB19_27
# %bb.25:                               # %for.body.preheader
	seqz	a0, s0
	add	a0, a0, s0
	slli	a0, a0, 2
	add	a0, a0, s3
	mv	a1, s7
	mv	a2, s3
.LBB19_26:                              # %for.body
                                        # =>This Inner Loop Header: Depth=1
	flw	fa5, 0(a2)
	flw	fa4, 0(a1)
	addi	a2, a2, 4
	fmul.s	fa5, fa5, fa4
	fsw	fa5, 0(a1)
	addi	a1, a1, 4
	bne	a2, a0, .LBB19_26
.LBB19_27:                              # %for.cond.cleanup
	sw	zero, 16(sp)
	sw	zero, 20(sp)
	sw	zero, 24(sp)
	beq	s4, s1, .LBB19_33
# %bb.28:                               # %cond.true.i.i.i.i86
	srli	a0, s0, 29
	bnez	a0, .LBB19_68
# %bb.29:                               # %_ZNSt15__new_allocatorIfE8allocateEjPKv.exit.i.i.i.i88
.Ltmp157:
	mv	a0, s8
	call	_Znwj
.Ltmp158:
	j	.LBB19_34
.LBB19_30:
	li	s7, 0
	li	a0, 5
	bge	s8, a0, .LBB19_23
.LBB19_31:                              # %if.else.i.i.i.i.i.i.i.i.i65
	li	a0, 4
	bne	s8, a0, .LBB19_24
# %bb.32:                               # %if.then2.i.i.i.i.i.i.i.i.i68
	flw	fa5, 0(s1)
	fsw	fa5, 0(s7)
	j	.LBB19_24
.LBB19_33:
	li	a0, 0
.LBB19_34:                              # %_ZNSt12_Vector_baseIfSaIfEEC2EjRKS0_.exit.i90
	add	s0, a0, s8
	li	a1, 5
	sw	a0, 16(sp)
	sw	a0, 20(sp)
	sw	s0, 24(sp)
	blt	s8, a1, .LBB19_56
# %bb.35:                               # %if.then.i.i.i.i.i.i.i.i.i101
	mv	a1, s7
	mv	a2, s8
	call	memcpy
.LBB19_36:                              # %_ZNSt6vectorIfSaIfEEC2ERKS1_.exit109
	sw	s0, 20(sp)
	sw	zero, 4(sp)
	sw	zero, 8(sp)
	sw	zero, 12(sp)
	beq	s11, s9, .LBB19_39
# %bb.37:                               # %cond.true.i.i.i.i119
	srai	a0, s10, 2
	srli	a1, a0, 29
	bnez	a1, .LBB19_71
# %bb.38:                               # %_ZNSt15__new_allocatorIiE8allocateEjPKv.exit.i.i.i.i
.Ltmp164:
	mv	a0, s10
	call	_Znwj
.Ltmp165:
	j	.LBB19_40
.LBB19_39:
	li	a0, 0
.LBB19_40:                              # %_ZNSt12_Vector_baseIiSaIiEEC2EjRKS0_.exit.i
	add	s0, a0, s10
	li	a1, 5
	sw	a0, 4(sp)
	sw	a0, 8(sp)
	sw	s0, 12(sp)
	blt	s10, a1, .LBB19_58
# %bb.41:                               # %if.then.i.i.i.i.i.i.i.i.i132
	mv	a1, s9
	mv	a2, s10
	call	memmove
.LBB19_42:                              # %_ZNSt6vectorIiSaIiEEC2ERKS1_.exit
	sw	s0, 8(sp)
.Ltmp171:
	addi	a1, sp, 16
	addi	a2, sp, 4
	mv	a0, s2
	call	_ZN6TensorIfEC1ESt6vectorIfSaIfEES1_IiSaIiEE
.Ltmp172:
# %bb.43:                               # %invoke.cont21
	lw	a0, 4(sp)
	beqz	a0, .LBB19_45
# %bb.44:                               # %if.then.i.i.i
	lw	a1, 12(sp)
	sub	a1, a1, a0
	call	_ZdlPvj
.LBB19_45:                              # %_ZNSt6vectorIiSaIiEED2Ev.exit
	lw	a0, 16(sp)
	beqz	a0, .LBB19_47
# %bb.46:                               # %if.then.i.i.i144
	lw	a1, 24(sp)
	sub	a1, a1, a0
	call	_ZdlPvj
.LBB19_47:                              # %_ZNSt6vectorIfSaIfEED2Ev.exit
	beqz	s7, .LBB19_49
# %bb.48:                               # %if.then.i.i.i150
	mv	a0, s7
	mv	a1, s8
	call	_ZdlPvj
.LBB19_49:                              # %_ZNSt6vectorIfSaIfEED2Ev.exit155
	beqz	s5, .LBB19_51
# %bb.50:                               # %if.then.i.i.i157
	mv	a0, s5
	mv	a1, s6
	call	_ZdlPvj
.LBB19_51:                              # %_ZNSt6vectorIiSaIiEED2Ev.exit162
	beqz	s3, .LBB19_53
# %bb.52:                               # %if.then.i.i.i164
	mv	a0, s3
	lw	a1, 0(sp)                       # 4-byte Folded Reload
	call	_ZdlPvj
.LBB19_53:                              # %_ZNSt6vectorIfSaIfEED2Ev.exit169
	lw	ra, 76(sp)                      # 4-byte Folded Reload
	lw	s0, 72(sp)                      # 4-byte Folded Reload
	lw	s1, 68(sp)                      # 4-byte Folded Reload
	lw	s2, 64(sp)                      # 4-byte Folded Reload
	lw	s3, 60(sp)                      # 4-byte Folded Reload
	lw	s4, 56(sp)                      # 4-byte Folded Reload
	lw	s5, 52(sp)                      # 4-byte Folded Reload
	lw	s6, 48(sp)                      # 4-byte Folded Reload
	lw	s7, 44(sp)                      # 4-byte Folded Reload
	lw	s8, 40(sp)                      # 4-byte Folded Reload
	lw	s9, 36(sp)                      # 4-byte Folded Reload
	lw	s10, 32(sp)                     # 4-byte Folded Reload
	lw	s11, 28(sp)                     # 4-byte Folded Reload
	.cfi_restore ra
	.cfi_restore s0
	.cfi_restore s1
	.cfi_restore s2
	.cfi_restore s3
	.cfi_restore s4
	.cfi_restore s5
	.cfi_restore s6
	.cfi_restore s7
	.cfi_restore s8
	.cfi_restore s9
	.cfi_restore s10
	.cfi_restore s11
	addi	sp, sp, 80
	.cfi_def_cfa_offset 0
	ret
.LBB19_54:                              # %if.else.i.i.i.i.i.i.i.i.i
	.cfi_restore_state
	li	a0, 4
	bne	s0, a0, .LBB19_6
# %bb.55:                               # %if.then2.i.i.i.i.i.i.i.i.i
	flw	fa5, 0(s4)
	fsw	fa5, 0(s3)
	j	.LBB19_6
.LBB19_56:                              # %if.else.i.i.i.i.i.i.i.i.i97
	li	a1, 4
	bne	s8, a1, .LBB19_36
# %bb.57:                               # %if.then2.i.i.i.i.i.i.i.i.i100
	flw	fa5, 0(s7)
	fsw	fa5, 0(a0)
	j	.LBB19_36
.LBB19_58:                              # %if.else.i.i.i.i.i.i.i.i.i128
	li	a1, 4
	bne	s10, a1, .LBB19_42
# %bb.59:                               # %if.then2.i.i.i.i.i.i.i.i.i131
	lw	a1, 0(s9)
	sw	a1, 0(a0)
	j	.LBB19_42
.LBB19_60:                              # %if.then.i.i.i.i.i
	srli	a0, a0, 30
	beqz	a0, .LBB19_74
# %bb.61:                               # %if.then3.i.i.i.i.i
	call	_ZSt28__throw_bad_array_new_lengthv
.LBB19_62:                              # %if.then.i.i.i.i.i.i
	srli	a0, a0, 30
	beqz	a0, .LBB19_75
# %bb.63:                               # %if.then3.i.i.i.i.i.i
.Ltmp144:
	call	_ZSt28__throw_bad_array_new_lengthv
.Ltmp145:
# %bb.64:                               # %.noexc
.LBB19_65:                              # %if.then.i.i.i.i.i70
	srli	s0, s0, 30
	beqz	s0, .LBB19_77
# %bb.66:                               # %if.then3.i.i.i.i.i73
.Ltmp154:
	call	_ZSt28__throw_bad_array_new_lengthv
.Ltmp155:
# %bb.67:                               # %.noexc74
.LBB19_68:                              # %if.then.i.i.i.i.i102
	srli	s0, s0, 30
	beqz	s0, .LBB19_79
# %bb.69:                               # %if.then3.i.i.i.i.i105
.Ltmp161:
	call	_ZSt28__throw_bad_array_new_lengthv
.Ltmp162:
# %bb.70:                               # %.noexc106
.LBB19_71:                              # %if.then.i.i.i.i.i133
	srli	a0, a0, 30
	beqz	a0, .LBB19_81
# %bb.72:                               # %if.then3.i.i.i.i.i136
.Ltmp168:
	call	_ZSt28__throw_bad_array_new_lengthv
.Ltmp169:
# %bb.73:                               # %.noexc137
.LBB19_74:                              # %if.end.i.i.i.i.i
	call	_ZSt17__throw_bad_allocv
.LBB19_75:                              # %if.end.i.i.i.i.i.i
.Ltmp142:
	call	_ZSt17__throw_bad_allocv
.Ltmp143:
# %bb.76:                               # %.noexc39
.LBB19_77:                              # %if.end.i.i.i.i.i72
.Ltmp152:
	call	_ZSt17__throw_bad_allocv
.Ltmp153:
# %bb.78:                               # %.noexc75
.LBB19_79:                              # %if.end.i.i.i.i.i104
.Ltmp159:
	call	_ZSt17__throw_bad_allocv
.Ltmp160:
# %bb.80:                               # %.noexc107
.LBB19_81:                              # %if.end.i.i.i.i.i135
.Ltmp166:
	call	_ZSt17__throw_bad_allocv
.Ltmp167:
# %bb.82:                               # %.noexc138
.LBB19_83:                              # %if.then
	lui	a0, %hi(.L.str.8)
	addi	a0, a0, %lo(.L.str.8)
	call	printf
.Ltmp147:
	li	a0, 1
	call	exit
.Ltmp148:
# %bb.84:                               # %invoke.cont7
.LBB19_85:                              # %lpad20
.Ltmp173:
	lw	a2, 4(sp)
	mv	s0, a0
	bnez	a2, .LBB19_91
# %bb.86:                               # %ehcleanup
	lw	a0, 16(sp)
	bnez	a0, .LBB19_94
.LBB19_87:                              # %ehcleanup22
	bnez	s7, .LBB19_96
.LBB19_88:                              # %ehcleanup24
	bnez	s5, .LBB19_98
.LBB19_89:                              # %ehcleanup25
	bnez	s3, .LBB19_100
.LBB19_90:                              # %_ZNSt6vectorIfSaIfEED2Ev.exit204
	mv	a0, s0
	call	_Unwind_Resume
.LBB19_91:                              # %if.then.i.i.i171
	lw	a1, 12(sp)
	sub	a1, a1, a2
	mv	a0, a2
	call	_ZdlPvj
	lw	a0, 16(sp)
	beqz	a0, .LBB19_87
	j	.LBB19_94
.LBB19_92:                              # %lpad2
.Ltmp149:
	mv	s0, a0
	beqz	s5, .LBB19_89
	j	.LBB19_98
.LBB19_93:                              # %lpad18
.Ltmp170:
	mv	s0, a0
	lw	a0, 16(sp)
	beqz	a0, .LBB19_87
.LBB19_94:                              # %if.then.i.i.i178
	lw	a1, 24(sp)
	sub	a1, a1, a0
	call	_ZdlPvj
	beqz	s7, .LBB19_88
	j	.LBB19_96
.LBB19_95:                              # %lpad14
.Ltmp163:
	mv	s0, a0
	beqz	s7, .LBB19_88
.LBB19_96:                              # %if.then.i.i.i185
	mv	a0, s7
	mv	a1, s8
	call	_ZdlPvj
	beqz	s5, .LBB19_89
	j	.LBB19_98
.LBB19_97:                              # %lpad8
.Ltmp156:
	mv	s0, a0
	beqz	s5, .LBB19_89
.LBB19_98:                              # %if.then.i.i.i192
	mv	a0, s5
	mv	a1, s6
	call	_ZdlPvj
	beqz	s3, .LBB19_90
	j	.LBB19_100
.LBB19_99:                              # %lpad
.Ltmp146:
	mv	s0, a0
	beqz	s3, .LBB19_90
.LBB19_100:                             # %if.then.i.i.i199
	mv	a0, s3
	lw	a1, 0(sp)                       # 4-byte Folded Reload
	call	_ZdlPvj
	mv	a0, s0
	call	_Unwind_Resume
.Lfunc_end19:
	.size	_ZNK6TensorIfE3mulERKS0_, .Lfunc_end19-_ZNK6TensorIfE3mulERKS0_
	.cfi_endproc
	.section	.gcc_except_table._ZNK6TensorIfE3mulERKS0_,"aG",@progbits,_ZNK6TensorIfE3mulERKS0_,comdat
	.p2align	2, 0x0
GCC_except_table19:
.Lexception8:
	.byte	255                             # @LPStart Encoding = omit
	.byte	255                             # @TType Encoding = omit
	.byte	3                               # Call site Encoding = udata4
	.uleb128 .Lcst_end8-.Lcst_begin8
.Lcst_begin8:
	.word	.Lfunc_begin8-.Lfunc_begin8     # >> Call Site 1 <<
	.word	.Ltmp140-.Lfunc_begin8          #   Call between .Lfunc_begin8 and .Ltmp140
	.word	0                               #     has no landing pad
	.byte	0                               #   On action: cleanup
	.word	.Ltmp140-.Lfunc_begin8          # >> Call Site 2 <<
	.word	.Ltmp141-.Ltmp140               #   Call between .Ltmp140 and .Ltmp141
	.word	.Ltmp146-.Lfunc_begin8          #     jumps to .Ltmp146
	.byte	0                               #   On action: cleanup
	.word	.Ltmp141-.Lfunc_begin8          # >> Call Site 3 <<
	.word	.Ltmp150-.Ltmp141               #   Call between .Ltmp141 and .Ltmp150
	.word	0                               #     has no landing pad
	.byte	0                               #   On action: cleanup
	.word	.Ltmp150-.Lfunc_begin8          # >> Call Site 4 <<
	.word	.Ltmp151-.Ltmp150               #   Call between .Ltmp150 and .Ltmp151
	.word	.Ltmp156-.Lfunc_begin8          #     jumps to .Ltmp156
	.byte	0                               #   On action: cleanup
	.word	.Ltmp151-.Lfunc_begin8          # >> Call Site 5 <<
	.word	.Ltmp157-.Ltmp151               #   Call between .Ltmp151 and .Ltmp157
	.word	0                               #     has no landing pad
	.byte	0                               #   On action: cleanup
	.word	.Ltmp157-.Lfunc_begin8          # >> Call Site 6 <<
	.word	.Ltmp158-.Ltmp157               #   Call between .Ltmp157 and .Ltmp158
	.word	.Ltmp163-.Lfunc_begin8          #     jumps to .Ltmp163
	.byte	0                               #   On action: cleanup
	.word	.Ltmp158-.Lfunc_begin8          # >> Call Site 7 <<
	.word	.Ltmp164-.Ltmp158               #   Call between .Ltmp158 and .Ltmp164
	.word	0                               #     has no landing pad
	.byte	0                               #   On action: cleanup
	.word	.Ltmp164-.Lfunc_begin8          # >> Call Site 8 <<
	.word	.Ltmp165-.Ltmp164               #   Call between .Ltmp164 and .Ltmp165
	.word	.Ltmp170-.Lfunc_begin8          #     jumps to .Ltmp170
	.byte	0                               #   On action: cleanup
	.word	.Ltmp165-.Lfunc_begin8          # >> Call Site 9 <<
	.word	.Ltmp171-.Ltmp165               #   Call between .Ltmp165 and .Ltmp171
	.word	0                               #     has no landing pad
	.byte	0                               #   On action: cleanup
	.word	.Ltmp171-.Lfunc_begin8          # >> Call Site 10 <<
	.word	.Ltmp172-.Ltmp171               #   Call between .Ltmp171 and .Ltmp172
	.word	.Ltmp173-.Lfunc_begin8          #     jumps to .Ltmp173
	.byte	0                               #   On action: cleanup
	.word	.Ltmp172-.Lfunc_begin8          # >> Call Site 11 <<
	.word	.Ltmp144-.Ltmp172               #   Call between .Ltmp172 and .Ltmp144
	.word	0                               #     has no landing pad
	.byte	0                               #   On action: cleanup
	.word	.Ltmp144-.Lfunc_begin8          # >> Call Site 12 <<
	.word	.Ltmp145-.Ltmp144               #   Call between .Ltmp144 and .Ltmp145
	.word	.Ltmp146-.Lfunc_begin8          #     jumps to .Ltmp146
	.byte	0                               #   On action: cleanup
	.word	.Ltmp154-.Lfunc_begin8          # >> Call Site 13 <<
	.word	.Ltmp155-.Ltmp154               #   Call between .Ltmp154 and .Ltmp155
	.word	.Ltmp156-.Lfunc_begin8          #     jumps to .Ltmp156
	.byte	0                               #   On action: cleanup
	.word	.Ltmp161-.Lfunc_begin8          # >> Call Site 14 <<
	.word	.Ltmp162-.Ltmp161               #   Call between .Ltmp161 and .Ltmp162
	.word	.Ltmp163-.Lfunc_begin8          #     jumps to .Ltmp163
	.byte	0                               #   On action: cleanup
	.word	.Ltmp168-.Lfunc_begin8          # >> Call Site 15 <<
	.word	.Ltmp169-.Ltmp168               #   Call between .Ltmp168 and .Ltmp169
	.word	.Ltmp170-.Lfunc_begin8          #     jumps to .Ltmp170
	.byte	0                               #   On action: cleanup
	.word	.Ltmp169-.Lfunc_begin8          # >> Call Site 16 <<
	.word	.Ltmp142-.Ltmp169               #   Call between .Ltmp169 and .Ltmp142
	.word	0                               #     has no landing pad
	.byte	0                               #   On action: cleanup
	.word	.Ltmp142-.Lfunc_begin8          # >> Call Site 17 <<
	.word	.Ltmp143-.Ltmp142               #   Call between .Ltmp142 and .Ltmp143
	.word	.Ltmp146-.Lfunc_begin8          #     jumps to .Ltmp146
	.byte	0                               #   On action: cleanup
	.word	.Ltmp152-.Lfunc_begin8          # >> Call Site 18 <<
	.word	.Ltmp153-.Ltmp152               #   Call between .Ltmp152 and .Ltmp153
	.word	.Ltmp156-.Lfunc_begin8          #     jumps to .Ltmp156
	.byte	0                               #   On action: cleanup
	.word	.Ltmp159-.Lfunc_begin8          # >> Call Site 19 <<
	.word	.Ltmp160-.Ltmp159               #   Call between .Ltmp159 and .Ltmp160
	.word	.Ltmp163-.Lfunc_begin8          #     jumps to .Ltmp163
	.byte	0                               #   On action: cleanup
	.word	.Ltmp166-.Lfunc_begin8          # >> Call Site 20 <<
	.word	.Ltmp167-.Ltmp166               #   Call between .Ltmp166 and .Ltmp167
	.word	.Ltmp170-.Lfunc_begin8          #     jumps to .Ltmp170
	.byte	0                               #   On action: cleanup
	.word	.Ltmp147-.Lfunc_begin8          # >> Call Site 21 <<
	.word	.Ltmp148-.Ltmp147               #   Call between .Ltmp147 and .Ltmp148
	.word	.Ltmp149-.Lfunc_begin8          #     jumps to .Ltmp149
	.byte	0                               #   On action: cleanup
	.word	.Ltmp148-.Lfunc_begin8          # >> Call Site 22 <<
	.word	.Lfunc_end19-.Ltmp148           #   Call between .Ltmp148 and .Lfunc_end19
	.word	0                               #     has no landing pad
	.byte	0                               #   On action: cleanup
.Lcst_end8:
	.p2align	2, 0x0
                                        # -- End function
	.section	.text._ZNK6TensorIfEmlERKS0_,"axG",@progbits,_ZNK6TensorIfEmlERKS0_,comdat
	.weak	_ZNK6TensorIfEmlERKS0_          # -- Begin function _ZNK6TensorIfEmlERKS0_
	.p2align	1
	.type	_ZNK6TensorIfEmlERKS0_,@function
_ZNK6TensorIfEmlERKS0_:                 # @_ZNK6TensorIfEmlERKS0_
	.cfi_startproc
# %bb.0:                                # %entry
	addi	sp, sp, -16
	.cfi_def_cfa_offset 16
	sw	ra, 12(sp)                      # 4-byte Folded Spill
	.cfi_offset ra, -4
	call	_ZNK6TensorIfE3mulERKS0_
	lw	ra, 12(sp)                      # 4-byte Folded Reload
	.cfi_restore ra
	addi	sp, sp, 16
	.cfi_def_cfa_offset 0
	ret
.Lfunc_end20:
	.size	_ZNK6TensorIfEmlERKS0_, .Lfunc_end20-_ZNK6TensorIfEmlERKS0_
	.cfi_endproc
                                        # -- End function
	.section	.text._ZNK6TensorIfEmlEf,"axG",@progbits,_ZNK6TensorIfEmlEf,comdat
	.weak	_ZNK6TensorIfEmlEf              # -- Begin function _ZNK6TensorIfEmlEf
	.p2align	1
	.type	_ZNK6TensorIfEmlEf,@function
_ZNK6TensorIfEmlEf:                     # @_ZNK6TensorIfEmlEf
.Lfunc_begin9:
	.cfi_startproc
	.cfi_personality 155, DW.ref.__gxx_personality_v0
	.cfi_lsda 27, .Lexception9
# %bb.0:                                # %entry
	addi	sp, sp, -96
	.cfi_def_cfa_offset 96
	sw	ra, 92(sp)                      # 4-byte Folded Spill
	sw	s0, 88(sp)                      # 4-byte Folded Spill
	sw	s1, 84(sp)                      # 4-byte Folded Spill
	sw	s2, 80(sp)                      # 4-byte Folded Spill
	sw	s3, 76(sp)                      # 4-byte Folded Spill
	sw	s4, 72(sp)                      # 4-byte Folded Spill
	sw	s5, 68(sp)                      # 4-byte Folded Spill
	sw	s6, 64(sp)                      # 4-byte Folded Spill
	sw	s7, 60(sp)                      # 4-byte Folded Spill
	sw	s8, 56(sp)                      # 4-byte Folded Spill
	sw	s9, 52(sp)                      # 4-byte Folded Spill
	sw	s10, 48(sp)                     # 4-byte Folded Spill
	sw	s11, 44(sp)                     # 4-byte Folded Spill
	.cfi_offset ra, -4
	.cfi_offset s0, -8
	.cfi_offset s1, -12
	.cfi_offset s2, -16
	.cfi_offset s3, -20
	.cfi_offset s4, -24
	.cfi_offset s5, -28
	.cfi_offset s6, -32
	.cfi_offset s7, -36
	.cfi_offset s8, -40
	.cfi_offset s9, -44
	.cfi_offset s10, -48
	.cfi_offset s11, -52
	.cfi_remember_state
	mv	s4, a1
	lw	a1, 0(a1)
	lw	a3, 4(s4)
	mv	s2, a0
	beq	a3, a1, .LBB21_16
# %bb.1:                                # %for.body.preheader
	li	s11, 0
	li	s1, 0
	li	s6, 0
	li	s5, 0
	li	s0, 0
	fmv.w.x	fa4, a2
	lui	s9, 524288
	lui	s10, 131072
	addi	s9, s9, -4
	addi	s10, s10, -1
	fsw	fa4, 12(sp)                     # 4-byte Folded Spill
	j	.LBB21_4
.LBB21_2:                               # %if.then.i
                                        #   in Loop: Header=BB21_4 Depth=1
	fsw	fa5, 0(s0)
	mv	s3, s5
.LBB21_3:                               # %invoke.cont
                                        #   in Loop: Header=BB21_4 Depth=1
	lw	a1, 0(s4)
	lw	a0, 4(s4)
	addi	s0, s0, 4
	addi	s1, s1, 1
	sub	a0, a0, a1
	srai	a0, a0, 2
	addi	s11, s11, 4
	bgeu	s1, a0, .LBB21_17
.LBB21_4:                               # %for.body
                                        # =>This Inner Loop Header: Depth=1
	add	a1, a1, s11
	flw	fa5, 0(a1)
	fmul.s	fa5, fa4, fa5
	bne	s0, s6, .LBB21_2
# %bb.5:                                # %if.else.i
                                        #   in Loop: Header=BB21_4 Depth=1
	sub	s8, s0, s5
	beq	s8, s9, .LBB21_51
# %bb.6:                                # %_ZNKSt6vectorIfSaIfEE12_M_check_lenEjPKc.exit.i.i
                                        #   in Loop: Header=BB21_4 Depth=1
	srai	a1, s8, 2
	seqz	a0, a1
	add	a0, a0, a1
	add	a1, a1, a0
	mv	a2, a1
	bltu	a1, s10, .LBB21_8
# %bb.7:                                # %_ZNKSt6vectorIfSaIfEE12_M_check_lenEjPKc.exit.i.i
                                        #   in Loop: Header=BB21_4 Depth=1
	mv	a2, s10
.LBB21_8:                               # %_ZNKSt6vectorIfSaIfEE12_M_check_lenEjPKc.exit.i.i
                                        #   in Loop: Header=BB21_4 Depth=1
	fsw	fa5, 16(sp)                     # 4-byte Folded Spill
	mv	s7, s10
	bltu	a1, a0, .LBB21_10
# %bb.9:                                # %_ZNKSt6vectorIfSaIfEE12_M_check_lenEjPKc.exit.i.i
                                        #   in Loop: Header=BB21_4 Depth=1
	mv	s7, a2
.LBB21_10:                              # %_ZNKSt6vectorIfSaIfEE12_M_check_lenEjPKc.exit.i.i
                                        #   in Loop: Header=BB21_4 Depth=1
	slli	s7, s7, 2
.Ltmp174:
	mv	a0, s7
	call	_Znwj
.Ltmp175:
# %bb.11:                               # %call5.i.i.i.i.noexc
                                        #   in Loop: Header=BB21_4 Depth=1
	mv	s3, a0
	add	s0, a0, s8
	flw	fa5, 16(sp)                     # 4-byte Folded Reload
	fsw	fa5, 0(s0)
	blez	s8, .LBB21_13
# %bb.12:                               # %if.then.i.i.i.i.i96
                                        #   in Loop: Header=BB21_4 Depth=1
	mv	a0, s3
	mv	a1, s5
	mv	a2, s8
	call	memcpy
.LBB21_13:                              # %_ZNSt6vectorIfSaIfEE11_S_relocateEPfS2_S2_RS0_.exit.i.i
                                        #   in Loop: Header=BB21_4 Depth=1
	beqz	s5, .LBB21_15
# %bb.14:                               # %if.then.i36.i.i
                                        #   in Loop: Header=BB21_4 Depth=1
	sub	a1, s6, s5
	mv	a0, s5
	call	_ZdlPvj
.LBB21_15:                              # %_ZNSt6vectorIfSaIfEE17_M_realloc_appendIJfEEEvDpOT_.exit.i
                                        #   in Loop: Header=BB21_4 Depth=1
	add	s6, s3, s7
	mv	s5, s3
	flw	fa4, 12(sp)                     # 4-byte Folded Reload
	j	.LBB21_3
.LBB21_16:
	li	s0, 0
	li	s3, 0
	li	s6, 0
.LBB21_17:                              # %for.cond.cleanup
	sub	s1, s0, s3
	sw	zero, 32(sp)
	sw	zero, 36(sp)
	sw	zero, 40(sp)
	beq	s0, s3, .LBB21_20
# %bb.18:                               # %cond.true.i.i.i.i
	srai	a0, s1, 2
	srli	a1, a0, 29
	bnez	a1, .LBB21_41
# %bb.19:                               # %_ZNSt15__new_allocatorIfE8allocateEjPKv.exit.i.i.i.i
.Ltmp180:
	mv	a0, s1
	call	_Znwj
.Ltmp181:
	j	.LBB21_21
.LBB21_20:
	li	a0, 0
.LBB21_21:                              # %_ZNSt12_Vector_baseIfSaIfEEC2EjRKS0_.exit.i
	add	s0, a0, s1
	li	a1, 5
	sw	a0, 32(sp)
	sw	a0, 36(sp)
	sw	s0, 40(sp)
	blt	s1, a1, .LBB21_37
# %bb.22:                               # %if.then.i.i.i.i.i.i.i.i.i
	mv	a1, s3
	mv	a2, s1
	call	memmove
.LBB21_23:                              # %_ZNSt6vectorIfSaIfEEC2ERKS1_.exit
	lw	s5, 12(s4)
	lw	a0, 16(s4)
	sw	s0, 36(sp)
	sub	s1, a0, s5
	sw	zero, 20(sp)
	sw	zero, 24(sp)
	sw	zero, 28(sp)
	beq	a0, s5, .LBB21_26
# %bb.24:                               # %cond.true.i.i.i.i32
	srai	a0, s1, 2
	srli	a1, a0, 29
	bnez	a1, .LBB21_44
# %bb.25:                               # %_ZNSt15__new_allocatorIiE8allocateEjPKv.exit.i.i.i.i
.Ltmp187:
	mv	a0, s1
	call	_Znwj
.Ltmp188:
	j	.LBB21_27
.LBB21_26:
	li	a0, 0
.LBB21_27:                              # %_ZNSt12_Vector_baseIiSaIiEEC2EjRKS0_.exit.i
	add	s0, a0, s1
	li	a1, 5
	sw	a0, 20(sp)
	sw	a0, 24(sp)
	sw	s0, 28(sp)
	blt	s1, a1, .LBB21_39
# %bb.28:                               # %if.then.i.i.i.i.i.i.i.i.i44
	mv	a1, s5
	mv	a2, s1
	call	memmove
.LBB21_29:                              # %_ZNSt6vectorIiSaIiEEC2ERKS1_.exit
	sw	s0, 24(sp)
.Ltmp194:
	addi	a1, sp, 32
	addi	a2, sp, 20
	mv	a0, s2
	call	_ZN6TensorIfEC1ESt6vectorIfSaIfEES1_IiSaIiEE
.Ltmp195:
# %bb.30:                               # %invoke.cont10
	lw	a0, 20(sp)
	beqz	a0, .LBB21_32
# %bb.31:                               # %if.then.i.i.i
	lw	a1, 28(sp)
	sub	a1, a1, a0
	call	_ZdlPvj
.LBB21_32:                              # %_ZNSt6vectorIiSaIiEED2Ev.exit
	lw	a0, 32(sp)
	beqz	a0, .LBB21_34
# %bb.33:                               # %if.then.i.i.i57
	lw	a1, 40(sp)
	sub	a1, a1, a0
	call	_ZdlPvj
.LBB21_34:                              # %_ZNSt6vectorIfSaIfEED2Ev.exit
	beqz	s3, .LBB21_36
# %bb.35:                               # %if.then.i.i.i63
	sub	a1, s6, s3
	mv	a0, s3
	call	_ZdlPvj
.LBB21_36:                              # %_ZNSt6vectorIfSaIfEED2Ev.exit68
	lw	ra, 92(sp)                      # 4-byte Folded Reload
	lw	s0, 88(sp)                      # 4-byte Folded Reload
	lw	s1, 84(sp)                      # 4-byte Folded Reload
	lw	s2, 80(sp)                      # 4-byte Folded Reload
	lw	s3, 76(sp)                      # 4-byte Folded Reload
	lw	s4, 72(sp)                      # 4-byte Folded Reload
	lw	s5, 68(sp)                      # 4-byte Folded Reload
	lw	s6, 64(sp)                      # 4-byte Folded Reload
	lw	s7, 60(sp)                      # 4-byte Folded Reload
	lw	s8, 56(sp)                      # 4-byte Folded Reload
	lw	s9, 52(sp)                      # 4-byte Folded Reload
	lw	s10, 48(sp)                     # 4-byte Folded Reload
	lw	s11, 44(sp)                     # 4-byte Folded Reload
	.cfi_restore ra
	.cfi_restore s0
	.cfi_restore s1
	.cfi_restore s2
	.cfi_restore s3
	.cfi_restore s4
	.cfi_restore s5
	.cfi_restore s6
	.cfi_restore s7
	.cfi_restore s8
	.cfi_restore s9
	.cfi_restore s10
	.cfi_restore s11
	addi	sp, sp, 96
	.cfi_def_cfa_offset 0
	ret
.LBB21_37:                              # %if.else.i.i.i.i.i.i.i.i.i
	.cfi_restore_state
	li	a1, 4
	bne	s1, a1, .LBB21_23
# %bb.38:                               # %if.then2.i.i.i.i.i.i.i.i.i
	flw	fa5, 0(s3)
	fsw	fa5, 0(a0)
	j	.LBB21_23
.LBB21_39:                              # %if.else.i.i.i.i.i.i.i.i.i40
	li	a1, 4
	bne	s1, a1, .LBB21_29
# %bb.40:                               # %if.then2.i.i.i.i.i.i.i.i.i43
	lw	a1, 0(s5)
	sw	a1, 0(a0)
	j	.LBB21_29
.LBB21_41:                              # %if.then.i.i.i.i.i
	srli	a0, a0, 30
	beqz	a0, .LBB21_47
# %bb.42:                               # %if.then3.i.i.i.i.i
.Ltmp184:
	call	_ZSt28__throw_bad_array_new_lengthv
.Ltmp185:
# %bb.43:                               # %.noexc
.LBB21_44:                              # %if.then.i.i.i.i.i45
	srli	a0, a0, 30
	beqz	a0, .LBB21_49
# %bb.45:                               # %if.then3.i.i.i.i.i48
.Ltmp191:
	call	_ZSt28__throw_bad_array_new_lengthv
.Ltmp192:
# %bb.46:                               # %.noexc49
.LBB21_47:                              # %if.end.i.i.i.i.i
.Ltmp182:
	call	_ZSt17__throw_bad_allocv
.Ltmp183:
# %bb.48:                               # %.noexc21
.LBB21_49:                              # %if.end.i.i.i.i.i47
.Ltmp189:
	call	_ZSt17__throw_bad_allocv
.Ltmp190:
# %bb.50:                               # %.noexc50
.LBB21_51:                              # %if.then.i.i.i97
.Ltmp177:
	lui	a0, %hi(.L.str.28)
	addi	a0, a0, %lo(.L.str.28)
	call	_ZSt20__throw_length_errorPKc
.Ltmp178:
# %bb.52:                               # %.noexc98
.LBB21_53:                              # %lpad9
.Ltmp196:
	lw	a2, 20(sp)
	mv	s0, a0
	beqz	a2, .LBB21_55
# %bb.54:                               # %if.then.i.i.i70
	lw	a1, 28(sp)
	sub	a1, a1, a2
	mv	a0, a2
	call	_ZdlPvj
.LBB21_55:                              # %ehcleanup
	mv	a0, s0
	j	.LBB21_59
.LBB21_56:                              # %lpad.loopexit
.Ltmp176:
	mv	s3, s5
	beqz	s3, .LBB21_61
	j	.LBB21_64
.LBB21_57:                              # %lpad.loopexit.split-lp
.Ltmp179:
	mv	s3, s5
	beqz	s3, .LBB21_61
	j	.LBB21_64
.LBB21_58:                              # %lpad7
.Ltmp193:
.LBB21_59:                              # %ehcleanup
	lw	a2, 32(sp)
	bnez	a2, .LBB21_62
# %bb.60:                               # %ehcleanup11
	bnez	s3, .LBB21_64
.LBB21_61:                              # %_ZNSt6vectorIfSaIfEED2Ev.exit89
	call	_Unwind_Resume
.LBB21_62:                              # %if.then.i.i.i77
	lw	a1, 40(sp)
	sub	a1, a1, a2
	mv	s0, a0
	mv	a0, a2
	call	_ZdlPvj
	mv	a0, s0
	beqz	s3, .LBB21_61
	j	.LBB21_64
.LBB21_63:                              # %lpad4
.Ltmp186:
	beqz	s3, .LBB21_61
.LBB21_64:                              # %if.then.i.i.i84
	sub	a1, s6, s3
	mv	s0, a0
	mv	a0, s3
	call	_ZdlPvj
	mv	a0, s0
	call	_Unwind_Resume
.Lfunc_end21:
	.size	_ZNK6TensorIfEmlEf, .Lfunc_end21-_ZNK6TensorIfEmlEf
	.cfi_endproc
	.section	.gcc_except_table._ZNK6TensorIfEmlEf,"aG",@progbits,_ZNK6TensorIfEmlEf,comdat
	.p2align	2, 0x0
GCC_except_table21:
.Lexception9:
	.byte	255                             # @LPStart Encoding = omit
	.byte	255                             # @TType Encoding = omit
	.byte	3                               # Call site Encoding = udata4
	.uleb128 .Lcst_end9-.Lcst_begin9
.Lcst_begin9:
	.word	.Ltmp174-.Lfunc_begin9          # >> Call Site 1 <<
	.word	.Ltmp175-.Ltmp174               #   Call between .Ltmp174 and .Ltmp175
	.word	.Ltmp176-.Lfunc_begin9          #     jumps to .Ltmp176
	.byte	0                               #   On action: cleanup
	.word	.Ltmp175-.Lfunc_begin9          # >> Call Site 2 <<
	.word	.Ltmp180-.Ltmp175               #   Call between .Ltmp175 and .Ltmp180
	.word	0                               #     has no landing pad
	.byte	0                               #   On action: cleanup
	.word	.Ltmp180-.Lfunc_begin9          # >> Call Site 3 <<
	.word	.Ltmp181-.Ltmp180               #   Call between .Ltmp180 and .Ltmp181
	.word	.Ltmp186-.Lfunc_begin9          #     jumps to .Ltmp186
	.byte	0                               #   On action: cleanup
	.word	.Ltmp181-.Lfunc_begin9          # >> Call Site 4 <<
	.word	.Ltmp187-.Ltmp181               #   Call between .Ltmp181 and .Ltmp187
	.word	0                               #     has no landing pad
	.byte	0                               #   On action: cleanup
	.word	.Ltmp187-.Lfunc_begin9          # >> Call Site 5 <<
	.word	.Ltmp188-.Ltmp187               #   Call between .Ltmp187 and .Ltmp188
	.word	.Ltmp193-.Lfunc_begin9          #     jumps to .Ltmp193
	.byte	0                               #   On action: cleanup
	.word	.Ltmp188-.Lfunc_begin9          # >> Call Site 6 <<
	.word	.Ltmp194-.Ltmp188               #   Call between .Ltmp188 and .Ltmp194
	.word	0                               #     has no landing pad
	.byte	0                               #   On action: cleanup
	.word	.Ltmp194-.Lfunc_begin9          # >> Call Site 7 <<
	.word	.Ltmp195-.Ltmp194               #   Call between .Ltmp194 and .Ltmp195
	.word	.Ltmp196-.Lfunc_begin9          #     jumps to .Ltmp196
	.byte	0                               #   On action: cleanup
	.word	.Ltmp184-.Lfunc_begin9          # >> Call Site 8 <<
	.word	.Ltmp185-.Ltmp184               #   Call between .Ltmp184 and .Ltmp185
	.word	.Ltmp186-.Lfunc_begin9          #     jumps to .Ltmp186
	.byte	0                               #   On action: cleanup
	.word	.Ltmp191-.Lfunc_begin9          # >> Call Site 9 <<
	.word	.Ltmp192-.Ltmp191               #   Call between .Ltmp191 and .Ltmp192
	.word	.Ltmp193-.Lfunc_begin9          #     jumps to .Ltmp193
	.byte	0                               #   On action: cleanup
	.word	.Ltmp182-.Lfunc_begin9          # >> Call Site 10 <<
	.word	.Ltmp183-.Ltmp182               #   Call between .Ltmp182 and .Ltmp183
	.word	.Ltmp186-.Lfunc_begin9          #     jumps to .Ltmp186
	.byte	0                               #   On action: cleanup
	.word	.Ltmp189-.Lfunc_begin9          # >> Call Site 11 <<
	.word	.Ltmp190-.Ltmp189               #   Call between .Ltmp189 and .Ltmp190
	.word	.Ltmp193-.Lfunc_begin9          #     jumps to .Ltmp193
	.byte	0                               #   On action: cleanup
	.word	.Ltmp177-.Lfunc_begin9          # >> Call Site 12 <<
	.word	.Ltmp178-.Ltmp177               #   Call between .Ltmp177 and .Ltmp178
	.word	.Ltmp179-.Lfunc_begin9          #     jumps to .Ltmp179
	.byte	0                               #   On action: cleanup
	.word	.Ltmp178-.Lfunc_begin9          # >> Call Site 13 <<
	.word	.Lfunc_end21-.Ltmp178           #   Call between .Ltmp178 and .Lfunc_end21
	.word	0                               #     has no landing pad
	.byte	0                               #   On action: cleanup
.Lcst_end9:
	.p2align	2, 0x0
                                        # -- End function
	.section	.text._ZNK6TensorIfEdvEf,"axG",@progbits,_ZNK6TensorIfEdvEf,comdat
	.weak	_ZNK6TensorIfEdvEf              # -- Begin function _ZNK6TensorIfEdvEf
	.p2align	1
	.type	_ZNK6TensorIfEdvEf,@function
_ZNK6TensorIfEdvEf:                     # @_ZNK6TensorIfEdvEf
.Lfunc_begin10:
	.cfi_startproc
	.cfi_personality 155, DW.ref.__gxx_personality_v0
	.cfi_lsda 27, .Lexception10
# %bb.0:                                # %entry
	addi	sp, sp, -96
	.cfi_def_cfa_offset 96
	sw	ra, 92(sp)                      # 4-byte Folded Spill
	sw	s0, 88(sp)                      # 4-byte Folded Spill
	sw	s1, 84(sp)                      # 4-byte Folded Spill
	sw	s2, 80(sp)                      # 4-byte Folded Spill
	sw	s3, 76(sp)                      # 4-byte Folded Spill
	sw	s4, 72(sp)                      # 4-byte Folded Spill
	sw	s5, 68(sp)                      # 4-byte Folded Spill
	sw	s6, 64(sp)                      # 4-byte Folded Spill
	sw	s7, 60(sp)                      # 4-byte Folded Spill
	sw	s8, 56(sp)                      # 4-byte Folded Spill
	sw	s9, 52(sp)                      # 4-byte Folded Spill
	sw	s10, 48(sp)                     # 4-byte Folded Spill
	sw	s11, 44(sp)                     # 4-byte Folded Spill
	.cfi_offset ra, -4
	.cfi_offset s0, -8
	.cfi_offset s1, -12
	.cfi_offset s2, -16
	.cfi_offset s3, -20
	.cfi_offset s4, -24
	.cfi_offset s5, -28
	.cfi_offset s6, -32
	.cfi_offset s7, -36
	.cfi_offset s8, -40
	.cfi_offset s9, -44
	.cfi_offset s10, -48
	.cfi_offset s11, -52
	.cfi_remember_state
	mv	s4, a1
	lw	a1, 0(a1)
	lw	a3, 4(s4)
	mv	s2, a0
	beq	a3, a1, .LBB22_16
# %bb.1:                                # %for.body.preheader
	li	s11, 0
	li	s1, 0
	li	s6, 0
	li	s5, 0
	li	s0, 0
	fmv.w.x	fa4, a2
	lui	s9, 524288
	lui	s10, 131072
	addi	s9, s9, -4
	addi	s10, s10, -1
	fsw	fa4, 12(sp)                     # 4-byte Folded Spill
	j	.LBB22_4
.LBB22_2:                               # %if.then.i
                                        #   in Loop: Header=BB22_4 Depth=1
	fsw	fa5, 0(s0)
	mv	s3, s5
.LBB22_3:                               # %invoke.cont
                                        #   in Loop: Header=BB22_4 Depth=1
	lw	a1, 0(s4)
	lw	a0, 4(s4)
	addi	s0, s0, 4
	addi	s1, s1, 1
	sub	a0, a0, a1
	srai	a0, a0, 2
	addi	s11, s11, 4
	bgeu	s1, a0, .LBB22_17
.LBB22_4:                               # %for.body
                                        # =>This Inner Loop Header: Depth=1
	add	a1, a1, s11
	flw	fa5, 0(a1)
	fdiv.s	fa5, fa5, fa4
	bne	s0, s6, .LBB22_2
# %bb.5:                                # %if.else.i
                                        #   in Loop: Header=BB22_4 Depth=1
	sub	s8, s0, s5
	beq	s8, s9, .LBB22_51
# %bb.6:                                # %_ZNKSt6vectorIfSaIfEE12_M_check_lenEjPKc.exit.i.i
                                        #   in Loop: Header=BB22_4 Depth=1
	srai	a1, s8, 2
	seqz	a0, a1
	add	a0, a0, a1
	add	a1, a1, a0
	mv	a2, a1
	bltu	a1, s10, .LBB22_8
# %bb.7:                                # %_ZNKSt6vectorIfSaIfEE12_M_check_lenEjPKc.exit.i.i
                                        #   in Loop: Header=BB22_4 Depth=1
	mv	a2, s10
.LBB22_8:                               # %_ZNKSt6vectorIfSaIfEE12_M_check_lenEjPKc.exit.i.i
                                        #   in Loop: Header=BB22_4 Depth=1
	fsw	fa5, 16(sp)                     # 4-byte Folded Spill
	mv	s7, s10
	bltu	a1, a0, .LBB22_10
# %bb.9:                                # %_ZNKSt6vectorIfSaIfEE12_M_check_lenEjPKc.exit.i.i
                                        #   in Loop: Header=BB22_4 Depth=1
	mv	s7, a2
.LBB22_10:                              # %_ZNKSt6vectorIfSaIfEE12_M_check_lenEjPKc.exit.i.i
                                        #   in Loop: Header=BB22_4 Depth=1
	slli	s7, s7, 2
.Ltmp197:
	mv	a0, s7
	call	_Znwj
.Ltmp198:
# %bb.11:                               # %call5.i.i.i.i.noexc
                                        #   in Loop: Header=BB22_4 Depth=1
	mv	s3, a0
	add	s0, a0, s8
	flw	fa5, 16(sp)                     # 4-byte Folded Reload
	fsw	fa5, 0(s0)
	blez	s8, .LBB22_13
# %bb.12:                               # %if.then.i.i.i.i.i96
                                        #   in Loop: Header=BB22_4 Depth=1
	mv	a0, s3
	mv	a1, s5
	mv	a2, s8
	call	memcpy
.LBB22_13:                              # %_ZNSt6vectorIfSaIfEE11_S_relocateEPfS2_S2_RS0_.exit.i.i
                                        #   in Loop: Header=BB22_4 Depth=1
	beqz	s5, .LBB22_15
# %bb.14:                               # %if.then.i36.i.i
                                        #   in Loop: Header=BB22_4 Depth=1
	sub	a1, s6, s5
	mv	a0, s5
	call	_ZdlPvj
.LBB22_15:                              # %_ZNSt6vectorIfSaIfEE17_M_realloc_appendIJfEEEvDpOT_.exit.i
                                        #   in Loop: Header=BB22_4 Depth=1
	add	s6, s3, s7
	mv	s5, s3
	flw	fa4, 12(sp)                     # 4-byte Folded Reload
	j	.LBB22_3
.LBB22_16:
	li	s0, 0
	li	s3, 0
	li	s6, 0
.LBB22_17:                              # %for.cond.cleanup
	sub	s1, s0, s3
	sw	zero, 32(sp)
	sw	zero, 36(sp)
	sw	zero, 40(sp)
	beq	s0, s3, .LBB22_20
# %bb.18:                               # %cond.true.i.i.i.i
	srai	a0, s1, 2
	srli	a1, a0, 29
	bnez	a1, .LBB22_41
# %bb.19:                               # %_ZNSt15__new_allocatorIfE8allocateEjPKv.exit.i.i.i.i
.Ltmp203:
	mv	a0, s1
	call	_Znwj
.Ltmp204:
	j	.LBB22_21
.LBB22_20:
	li	a0, 0
.LBB22_21:                              # %_ZNSt12_Vector_baseIfSaIfEEC2EjRKS0_.exit.i
	add	s0, a0, s1
	li	a1, 5
	sw	a0, 32(sp)
	sw	a0, 36(sp)
	sw	s0, 40(sp)
	blt	s1, a1, .LBB22_37
# %bb.22:                               # %if.then.i.i.i.i.i.i.i.i.i
	mv	a1, s3
	mv	a2, s1
	call	memmove
.LBB22_23:                              # %_ZNSt6vectorIfSaIfEEC2ERKS1_.exit
	lw	s5, 12(s4)
	lw	a0, 16(s4)
	sw	s0, 36(sp)
	sub	s1, a0, s5
	sw	zero, 20(sp)
	sw	zero, 24(sp)
	sw	zero, 28(sp)
	beq	a0, s5, .LBB22_26
# %bb.24:                               # %cond.true.i.i.i.i32
	srai	a0, s1, 2
	srli	a1, a0, 29
	bnez	a1, .LBB22_44
# %bb.25:                               # %_ZNSt15__new_allocatorIiE8allocateEjPKv.exit.i.i.i.i
.Ltmp210:
	mv	a0, s1
	call	_Znwj
.Ltmp211:
	j	.LBB22_27
.LBB22_26:
	li	a0, 0
.LBB22_27:                              # %_ZNSt12_Vector_baseIiSaIiEEC2EjRKS0_.exit.i
	add	s0, a0, s1
	li	a1, 5
	sw	a0, 20(sp)
	sw	a0, 24(sp)
	sw	s0, 28(sp)
	blt	s1, a1, .LBB22_39
# %bb.28:                               # %if.then.i.i.i.i.i.i.i.i.i44
	mv	a1, s5
	mv	a2, s1
	call	memmove
.LBB22_29:                              # %_ZNSt6vectorIiSaIiEEC2ERKS1_.exit
	sw	s0, 24(sp)
.Ltmp217:
	addi	a1, sp, 32
	addi	a2, sp, 20
	mv	a0, s2
	call	_ZN6TensorIfEC1ESt6vectorIfSaIfEES1_IiSaIiEE
.Ltmp218:
# %bb.30:                               # %invoke.cont10
	lw	a0, 20(sp)
	beqz	a0, .LBB22_32
# %bb.31:                               # %if.then.i.i.i
	lw	a1, 28(sp)
	sub	a1, a1, a0
	call	_ZdlPvj
.LBB22_32:                              # %_ZNSt6vectorIiSaIiEED2Ev.exit
	lw	a0, 32(sp)
	beqz	a0, .LBB22_34
# %bb.33:                               # %if.then.i.i.i57
	lw	a1, 40(sp)
	sub	a1, a1, a0
	call	_ZdlPvj
.LBB22_34:                              # %_ZNSt6vectorIfSaIfEED2Ev.exit
	beqz	s3, .LBB22_36
# %bb.35:                               # %if.then.i.i.i63
	sub	a1, s6, s3
	mv	a0, s3
	call	_ZdlPvj
.LBB22_36:                              # %_ZNSt6vectorIfSaIfEED2Ev.exit68
	lw	ra, 92(sp)                      # 4-byte Folded Reload
	lw	s0, 88(sp)                      # 4-byte Folded Reload
	lw	s1, 84(sp)                      # 4-byte Folded Reload
	lw	s2, 80(sp)                      # 4-byte Folded Reload
	lw	s3, 76(sp)                      # 4-byte Folded Reload
	lw	s4, 72(sp)                      # 4-byte Folded Reload
	lw	s5, 68(sp)                      # 4-byte Folded Reload
	lw	s6, 64(sp)                      # 4-byte Folded Reload
	lw	s7, 60(sp)                      # 4-byte Folded Reload
	lw	s8, 56(sp)                      # 4-byte Folded Reload
	lw	s9, 52(sp)                      # 4-byte Folded Reload
	lw	s10, 48(sp)                     # 4-byte Folded Reload
	lw	s11, 44(sp)                     # 4-byte Folded Reload
	.cfi_restore ra
	.cfi_restore s0
	.cfi_restore s1
	.cfi_restore s2
	.cfi_restore s3
	.cfi_restore s4
	.cfi_restore s5
	.cfi_restore s6
	.cfi_restore s7
	.cfi_restore s8
	.cfi_restore s9
	.cfi_restore s10
	.cfi_restore s11
	addi	sp, sp, 96
	.cfi_def_cfa_offset 0
	ret
.LBB22_37:                              # %if.else.i.i.i.i.i.i.i.i.i
	.cfi_restore_state
	li	a1, 4
	bne	s1, a1, .LBB22_23
# %bb.38:                               # %if.then2.i.i.i.i.i.i.i.i.i
	flw	fa5, 0(s3)
	fsw	fa5, 0(a0)
	j	.LBB22_23
.LBB22_39:                              # %if.else.i.i.i.i.i.i.i.i.i40
	li	a1, 4
	bne	s1, a1, .LBB22_29
# %bb.40:                               # %if.then2.i.i.i.i.i.i.i.i.i43
	lw	a1, 0(s5)
	sw	a1, 0(a0)
	j	.LBB22_29
.LBB22_41:                              # %if.then.i.i.i.i.i
	srli	a0, a0, 30
	beqz	a0, .LBB22_47
# %bb.42:                               # %if.then3.i.i.i.i.i
.Ltmp207:
	call	_ZSt28__throw_bad_array_new_lengthv
.Ltmp208:
# %bb.43:                               # %.noexc
.LBB22_44:                              # %if.then.i.i.i.i.i45
	srli	a0, a0, 30
	beqz	a0, .LBB22_49
# %bb.45:                               # %if.then3.i.i.i.i.i48
.Ltmp214:
	call	_ZSt28__throw_bad_array_new_lengthv
.Ltmp215:
# %bb.46:                               # %.noexc49
.LBB22_47:                              # %if.end.i.i.i.i.i
.Ltmp205:
	call	_ZSt17__throw_bad_allocv
.Ltmp206:
# %bb.48:                               # %.noexc21
.LBB22_49:                              # %if.end.i.i.i.i.i47
.Ltmp212:
	call	_ZSt17__throw_bad_allocv
.Ltmp213:
# %bb.50:                               # %.noexc50
.LBB22_51:                              # %if.then.i.i.i97
.Ltmp200:
	lui	a0, %hi(.L.str.28)
	addi	a0, a0, %lo(.L.str.28)
	call	_ZSt20__throw_length_errorPKc
.Ltmp201:
# %bb.52:                               # %.noexc98
.LBB22_53:                              # %lpad9
.Ltmp219:
	lw	a2, 20(sp)
	mv	s0, a0
	beqz	a2, .LBB22_55
# %bb.54:                               # %if.then.i.i.i70
	lw	a1, 28(sp)
	sub	a1, a1, a2
	mv	a0, a2
	call	_ZdlPvj
.LBB22_55:                              # %ehcleanup
	mv	a0, s0
	j	.LBB22_59
.LBB22_56:                              # %lpad.loopexit
.Ltmp199:
	mv	s3, s5
	beqz	s3, .LBB22_61
	j	.LBB22_64
.LBB22_57:                              # %lpad.loopexit.split-lp
.Ltmp202:
	mv	s3, s5
	beqz	s3, .LBB22_61
	j	.LBB22_64
.LBB22_58:                              # %lpad7
.Ltmp216:
.LBB22_59:                              # %ehcleanup
	lw	a2, 32(sp)
	bnez	a2, .LBB22_62
# %bb.60:                               # %ehcleanup11
	bnez	s3, .LBB22_64
.LBB22_61:                              # %_ZNSt6vectorIfSaIfEED2Ev.exit89
	call	_Unwind_Resume
.LBB22_62:                              # %if.then.i.i.i77
	lw	a1, 40(sp)
	sub	a1, a1, a2
	mv	s0, a0
	mv	a0, a2
	call	_ZdlPvj
	mv	a0, s0
	beqz	s3, .LBB22_61
	j	.LBB22_64
.LBB22_63:                              # %lpad4
.Ltmp209:
	beqz	s3, .LBB22_61
.LBB22_64:                              # %if.then.i.i.i84
	sub	a1, s6, s3
	mv	s0, a0
	mv	a0, s3
	call	_ZdlPvj
	mv	a0, s0
	call	_Unwind_Resume
.Lfunc_end22:
	.size	_ZNK6TensorIfEdvEf, .Lfunc_end22-_ZNK6TensorIfEdvEf
	.cfi_endproc
	.section	.gcc_except_table._ZNK6TensorIfEdvEf,"aG",@progbits,_ZNK6TensorIfEdvEf,comdat
	.p2align	2, 0x0
GCC_except_table22:
.Lexception10:
	.byte	255                             # @LPStart Encoding = omit
	.byte	255                             # @TType Encoding = omit
	.byte	3                               # Call site Encoding = udata4
	.uleb128 .Lcst_end10-.Lcst_begin10
.Lcst_begin10:
	.word	.Ltmp197-.Lfunc_begin10         # >> Call Site 1 <<
	.word	.Ltmp198-.Ltmp197               #   Call between .Ltmp197 and .Ltmp198
	.word	.Ltmp199-.Lfunc_begin10         #     jumps to .Ltmp199
	.byte	0                               #   On action: cleanup
	.word	.Ltmp198-.Lfunc_begin10         # >> Call Site 2 <<
	.word	.Ltmp203-.Ltmp198               #   Call between .Ltmp198 and .Ltmp203
	.word	0                               #     has no landing pad
	.byte	0                               #   On action: cleanup
	.word	.Ltmp203-.Lfunc_begin10         # >> Call Site 3 <<
	.word	.Ltmp204-.Ltmp203               #   Call between .Ltmp203 and .Ltmp204
	.word	.Ltmp209-.Lfunc_begin10         #     jumps to .Ltmp209
	.byte	0                               #   On action: cleanup
	.word	.Ltmp204-.Lfunc_begin10         # >> Call Site 4 <<
	.word	.Ltmp210-.Ltmp204               #   Call between .Ltmp204 and .Ltmp210
	.word	0                               #     has no landing pad
	.byte	0                               #   On action: cleanup
	.word	.Ltmp210-.Lfunc_begin10         # >> Call Site 5 <<
	.word	.Ltmp211-.Ltmp210               #   Call between .Ltmp210 and .Ltmp211
	.word	.Ltmp216-.Lfunc_begin10         #     jumps to .Ltmp216
	.byte	0                               #   On action: cleanup
	.word	.Ltmp211-.Lfunc_begin10         # >> Call Site 6 <<
	.word	.Ltmp217-.Ltmp211               #   Call between .Ltmp211 and .Ltmp217
	.word	0                               #     has no landing pad
	.byte	0                               #   On action: cleanup
	.word	.Ltmp217-.Lfunc_begin10         # >> Call Site 7 <<
	.word	.Ltmp218-.Ltmp217               #   Call between .Ltmp217 and .Ltmp218
	.word	.Ltmp219-.Lfunc_begin10         #     jumps to .Ltmp219
	.byte	0                               #   On action: cleanup
	.word	.Ltmp207-.Lfunc_begin10         # >> Call Site 8 <<
	.word	.Ltmp208-.Ltmp207               #   Call between .Ltmp207 and .Ltmp208
	.word	.Ltmp209-.Lfunc_begin10         #     jumps to .Ltmp209
	.byte	0                               #   On action: cleanup
	.word	.Ltmp214-.Lfunc_begin10         # >> Call Site 9 <<
	.word	.Ltmp215-.Ltmp214               #   Call between .Ltmp214 and .Ltmp215
	.word	.Ltmp216-.Lfunc_begin10         #     jumps to .Ltmp216
	.byte	0                               #   On action: cleanup
	.word	.Ltmp205-.Lfunc_begin10         # >> Call Site 10 <<
	.word	.Ltmp206-.Ltmp205               #   Call between .Ltmp205 and .Ltmp206
	.word	.Ltmp209-.Lfunc_begin10         #     jumps to .Ltmp209
	.byte	0                               #   On action: cleanup
	.word	.Ltmp212-.Lfunc_begin10         # >> Call Site 11 <<
	.word	.Ltmp213-.Ltmp212               #   Call between .Ltmp212 and .Ltmp213
	.word	.Ltmp216-.Lfunc_begin10         #     jumps to .Ltmp216
	.byte	0                               #   On action: cleanup
	.word	.Ltmp200-.Lfunc_begin10         # >> Call Site 12 <<
	.word	.Ltmp201-.Ltmp200               #   Call between .Ltmp200 and .Ltmp201
	.word	.Ltmp202-.Lfunc_begin10         #     jumps to .Ltmp202
	.byte	0                               #   On action: cleanup
	.word	.Ltmp201-.Lfunc_begin10         # >> Call Site 13 <<
	.word	.Lfunc_end22-.Ltmp201           #   Call between .Ltmp201 and .Lfunc_end22
	.word	0                               #     has no landing pad
	.byte	0                               #   On action: cleanup
.Lcst_end10:
	.p2align	2, 0x0
                                        # -- End function
	.section	.text._ZNK6TensorIfE3addERKS0_,"axG",@progbits,_ZNK6TensorIfE3addERKS0_,comdat
	.weak	_ZNK6TensorIfE3addERKS0_        # -- Begin function _ZNK6TensorIfE3addERKS0_
	.p2align	1
	.type	_ZNK6TensorIfE3addERKS0_,@function
_ZNK6TensorIfE3addERKS0_:               # @_ZNK6TensorIfE3addERKS0_
.Lfunc_begin11:
	.cfi_startproc
	.cfi_personality 155, DW.ref.__gxx_personality_v0
	.cfi_lsda 27, .Lexception11
# %bb.0:                                # %entry
	addi	sp, sp, -128
	.cfi_def_cfa_offset 128
	sw	ra, 124(sp)                     # 4-byte Folded Spill
	sw	s0, 120(sp)                     # 4-byte Folded Spill
	sw	s1, 116(sp)                     # 4-byte Folded Spill
	sw	s2, 112(sp)                     # 4-byte Folded Spill
	sw	s3, 108(sp)                     # 4-byte Folded Spill
	sw	s4, 104(sp)                     # 4-byte Folded Spill
	sw	s5, 100(sp)                     # 4-byte Folded Spill
	sw	s6, 96(sp)                      # 4-byte Folded Spill
	sw	s7, 92(sp)                      # 4-byte Folded Spill
	sw	s8, 88(sp)                      # 4-byte Folded Spill
	sw	s9, 84(sp)                      # 4-byte Folded Spill
	sw	s10, 80(sp)                     # 4-byte Folded Spill
	sw	s11, 76(sp)                     # 4-byte Folded Spill
	.cfi_offset ra, -4
	.cfi_offset s0, -8
	.cfi_offset s1, -12
	.cfi_offset s2, -16
	.cfi_offset s3, -20
	.cfi_offset s4, -24
	.cfi_offset s5, -28
	.cfi_offset s6, -32
	.cfi_offset s7, -36
	.cfi_offset s8, -40
	.cfi_offset s9, -44
	.cfi_offset s10, -48
	.cfi_offset s11, -52
	.cfi_remember_state
	mv	s0, a2
	mv	s9, a1
	lw	s7, 0(a2)
	lw	s2, 4(a2)
	sub	s11, s2, s7
	srai	a2, s11, 2
	sw	a2, 24(sp)                      # 4-byte Folded Spill
	sw	a0, 16(sp)                      # 4-byte Folded Spill
	beq	s2, s7, .LBB23_8
# %bb.1:                                # %cond.true.i.i.i.i
	srli	a1, a2, 29
	bnez	a1, .LBB23_147
# %bb.2:                                # %_ZNSt15__new_allocatorIfE8allocateEjPKv.exit.i.i.i.i
	mv	a0, s11
	call	_Znwj
	mv	s4, a0
	li	a0, 5
	blt	s11, a0, .LBB23_9
.LBB23_3:                               # %if.then.i.i.i.i.i.i.i.i.i
	mv	a0, s4
	mv	a1, s7
	mv	a2, s11
	call	memmove
.LBB23_4:                               # %_ZNSt6vectorIfSaIfEEC2ERKS1_.exit
	lw	s5, 12(s0)
	lw	s3, 16(s0)
	sub	s1, s3, s5
	srai	s6, s1, 2
	sw	zero, 64(sp)
	sw	zero, 68(sp)
	sw	zero, 72(sp)
	beq	s3, s5, .LBB23_11
# %bb.5:                                # %cond.true.i.i.i.i.i
	srli	a0, s6, 29
	bnez	a0, .LBB23_149
# %bb.6:                                # %_ZNSt15__new_allocatorIiE8allocateEjPKv.exit.i.i.i.i.i
.Ltmp220:
	mv	a0, s1
	call	_Znwj
.Ltmp221:
# %bb.7:
	mv	s8, a0
	j	.LBB23_12
.LBB23_8:
	li	s4, 0
	li	a0, 5
	bge	s11, a0, .LBB23_3
.LBB23_9:                               # %if.else.i.i.i.i.i.i.i.i.i
	li	a0, 4
	bne	s11, a0, .LBB23_4
# %bb.10:                               # %if.then2.i.i.i.i.i.i.i.i.i
	flw	fa5, 0(s7)
	fsw	fa5, 0(s4)
	j	.LBB23_4
.LBB23_11:
	li	s8, 0
.LBB23_12:                              # %_ZNSt12_Vector_baseIiSaIiEEC2EjRKS0_.exit.i.i
	add	s0, s8, s1
	li	a0, 5
	sw	s8, 64(sp)
	sw	s8, 68(sp)
	sw	s0, 72(sp)
	blt	s1, a0, .LBB23_141
# %bb.13:                               # %if.then.i.i.i.i.i.i.i.i.i.i
	mv	a0, s8
	mv	a1, s5
	mv	a2, s1
	call	memmove
.LBB23_14:                              # %_ZNK6TensorIfE8getShapeEv.exit
	sw	s0, 68(sp)
	lw	a0, 12(s9)
	lw	a3, 16(s9)
	sw	zero, 52(sp)
	sw	zero, 56(sp)
	sw	zero, 60(sp)
	sub	a2, a3, a0
	srai	a1, a2, 2
	addi	a5, s9, 12
	sw	s11, 20(sp)                     # 4-byte Folded Spill
	bne	a1, s6, .LBB23_31
# %bb.15:                               # %for.cond.preheader
	sw	a5, 12(sp)                      # 4-byte Folded Spill
	lw	a0, 0(s9)
	lw	a1, 4(s9)
	beq	a1, a0, .LBB23_67
# %bb.16:                               # %for.body.preheader
	li	s0, 0
	li	s1, 0
	li	s8, 0
	li	s10, 0
	li	s6, 0
	lui	s5, 524288
	lui	s11, 131072
	addi	s5, s5, -4
	addi	s11, s11, -1
	j	.LBB23_19
.LBB23_17:                              # %if.then.i
                                        #   in Loop: Header=BB23_19 Depth=1
	fsw	fa5, 0(s10)
	mv	s7, s6
.LBB23_18:                              # %invoke.cont10
                                        #   in Loop: Header=BB23_19 Depth=1
	lw	a0, 0(s9)
	lw	a1, 4(s9)
	addi	s10, s10, 4
	addi	s1, s1, 1
	sub	a1, a1, a0
	srai	a1, a1, 2
	addi	s0, s0, 4
	bgeu	s1, a1, .LBB23_68
.LBB23_19:                              # %for.body
                                        # =>This Inner Loop Header: Depth=1
	add	a0, a0, s0
	flw	fa5, 0(a0)
	add	a0, s4, s0
	flw	fa4, 0(a0)
	fadd.s	fa5, fa5, fa4
	bne	s10, s8, .LBB23_17
# %bb.20:                               # %if.else.i
                                        #   in Loop: Header=BB23_19 Depth=1
	sub	s3, s10, s6
	beq	s3, s5, .LBB23_165
# %bb.21:                               # %_ZNKSt6vectorIfSaIfEE12_M_check_lenEjPKc.exit.i.i
                                        #   in Loop: Header=BB23_19 Depth=1
	srai	a1, s3, 2
	seqz	a0, a1
	add	a0, a0, a1
	add	a1, a1, a0
	mv	a2, a1
	bltu	a1, s11, .LBB23_23
# %bb.22:                               # %_ZNKSt6vectorIfSaIfEE12_M_check_lenEjPKc.exit.i.i
                                        #   in Loop: Header=BB23_19 Depth=1
	mv	a2, s11
.LBB23_23:                              # %_ZNKSt6vectorIfSaIfEE12_M_check_lenEjPKc.exit.i.i
                                        #   in Loop: Header=BB23_19 Depth=1
	fsw	fa5, 24(sp)                     # 4-byte Folded Spill
	mv	s2, s11
	bltu	a1, a0, .LBB23_25
# %bb.24:                               # %_ZNKSt6vectorIfSaIfEE12_M_check_lenEjPKc.exit.i.i
                                        #   in Loop: Header=BB23_19 Depth=1
	mv	s2, a2
.LBB23_25:                              # %_ZNKSt6vectorIfSaIfEE12_M_check_lenEjPKc.exit.i.i
                                        #   in Loop: Header=BB23_19 Depth=1
	slli	s2, s2, 2
.Ltmp261:
	mv	a0, s2
	call	_Znwj
.Ltmp262:
# %bb.26:                               # %call5.i.i.i.i.noexc
                                        #   in Loop: Header=BB23_19 Depth=1
	mv	s7, a0
	add	s10, a0, s3
	flw	fa5, 24(sp)                     # 4-byte Folded Reload
	fsw	fa5, 0(s10)
	blez	s3, .LBB23_28
# %bb.27:                               # %if.then.i.i.i.i.i443
                                        #   in Loop: Header=BB23_19 Depth=1
	mv	a0, s7
	mv	a1, s6
	mv	a2, s3
	call	memcpy
.LBB23_28:                              # %_ZNSt6vectorIfSaIfEE11_S_relocateEPfS2_S2_RS0_.exit.i.i
                                        #   in Loop: Header=BB23_19 Depth=1
	beqz	s6, .LBB23_30
# %bb.29:                               # %if.then.i36.i.i
                                        #   in Loop: Header=BB23_19 Depth=1
	sub	a1, s8, s6
	mv	a0, s6
	call	_ZdlPvj
.LBB23_30:                              # %_ZNSt6vectorIfSaIfEE17_M_realloc_appendIJfEEEvDpOT_.exit.i
                                        #   in Loop: Header=BB23_19 Depth=1
	add	s8, s7, s2
	mv	s6, s7
	j	.LBB23_18
.LBB23_31:                              # %if.else
	bne	s3, s5, .LBB23_49
# %bb.32:                               # %if.else
	li	a4, 4
	bne	a2, a4, .LBB23_49
# %bb.33:                               # %for.cond22.preheader
	sw	a5, 12(sp)                      # 4-byte Folded Spill
	lw	a0, 0(s9)
	lw	a1, 4(s9)
	beq	a1, a0, .LBB23_107
# %bb.34:                               # %for.body27.preheader
	li	s0, 0
	li	s1, 0
	li	s8, 0
	li	s10, 0
	li	s6, 0
	lui	s5, 524288
	lui	s11, 131072
	addi	s5, s5, -4
	addi	s11, s11, -1
	j	.LBB23_37
.LBB23_35:                              # %if.then.i450
                                        #   in Loop: Header=BB23_37 Depth=1
	fsw	fa5, 0(s10)
	mv	s7, s6
.LBB23_36:                              # %invoke.cont34
                                        #   in Loop: Header=BB23_37 Depth=1
	lw	a0, 0(s9)
	lw	a1, 4(s9)
	addi	s10, s10, 4
	addi	s1, s1, 1
	sub	a1, a1, a0
	srai	a1, a1, 2
	addi	s0, s0, 4
	bgeu	s1, a1, .LBB23_108
.LBB23_37:                              # %for.body27
                                        # =>This Inner Loop Header: Depth=1
	add	a0, a0, s0
	flw	fa5, 0(a0)
	flw	fa4, 0(s4)
	fadd.s	fa5, fa5, fa4
	bne	s10, s8, .LBB23_35
# %bb.38:                               # %if.else.i453
                                        #   in Loop: Header=BB23_37 Depth=1
	sub	s3, s10, s6
	beq	s3, s5, .LBB23_167
# %bb.39:                               # %_ZNKSt6vectorIfSaIfEE12_M_check_lenEjPKc.exit.i.i458
                                        #   in Loop: Header=BB23_37 Depth=1
	srai	a1, s3, 2
	seqz	a0, a1
	add	a0, a0, a1
	add	a1, a1, a0
	mv	a2, a1
	bltu	a1, s11, .LBB23_41
# %bb.40:                               # %_ZNKSt6vectorIfSaIfEE12_M_check_lenEjPKc.exit.i.i458
                                        #   in Loop: Header=BB23_37 Depth=1
	mv	a2, s11
.LBB23_41:                              # %_ZNKSt6vectorIfSaIfEE12_M_check_lenEjPKc.exit.i.i458
                                        #   in Loop: Header=BB23_37 Depth=1
	fsw	fa5, 24(sp)                     # 4-byte Folded Spill
	mv	s2, s11
	bltu	a1, a0, .LBB23_43
# %bb.42:                               # %_ZNKSt6vectorIfSaIfEE12_M_check_lenEjPKc.exit.i.i458
                                        #   in Loop: Header=BB23_37 Depth=1
	mv	s2, a2
.LBB23_43:                              # %_ZNKSt6vectorIfSaIfEE12_M_check_lenEjPKc.exit.i.i458
                                        #   in Loop: Header=BB23_37 Depth=1
	slli	s2, s2, 2
.Ltmp253:
	mv	a0, s2
	call	_Znwj
.Ltmp254:
# %bb.44:                               # %call5.i.i.i.i.noexc479
                                        #   in Loop: Header=BB23_37 Depth=1
	mv	s7, a0
	add	s10, a0, s3
	flw	fa5, 24(sp)                     # 4-byte Folded Reload
	fsw	fa5, 0(s10)
	blez	s3, .LBB23_46
# %bb.45:                               # %if.then.i.i.i.i.i476
                                        #   in Loop: Header=BB23_37 Depth=1
	mv	a0, s7
	mv	a1, s6
	mv	a2, s3
	call	memcpy
.LBB23_46:                              # %_ZNSt6vectorIfSaIfEE11_S_relocateEPfS2_S2_RS0_.exit.i.i468
                                        #   in Loop: Header=BB23_37 Depth=1
	beqz	s6, .LBB23_48
# %bb.47:                               # %if.then.i36.i.i470
                                        #   in Loop: Header=BB23_37 Depth=1
	sub	a1, s8, s6
	mv	a0, s6
	call	_ZdlPvj
.LBB23_48:                              # %_ZNSt6vectorIfSaIfEE17_M_realloc_appendIJfEEEvDpOT_.exit.i473
                                        #   in Loop: Header=BB23_37 Depth=1
	add	s8, s7, s2
	mv	s6, s7
	j	.LBB23_36
.LBB23_49:                              # %if.else41
	li	a4, 4
	bne	s1, a4, .LBB23_69
# %bb.50:                               # %if.else41
	bne	a3, a0, .LBB23_69
# %bb.51:                               # %for.cond50.preheader
	beq	s2, s7, .LBB23_109
# %bb.52:                               # %for.body54.preheader
	li	s8, 0
	li	s10, 0
	li	s6, 0
	lw	a0, 24(sp)                      # 4-byte Folded Reload
	seqz	s0, a0
	lui	s3, 524288
	lui	s7, 131072
	add	s0, s0, a0
	addi	s3, s3, -4
	addi	s7, s7, -1
	mv	s1, s4
	j	.LBB23_55
.LBB23_53:                              # %if.then.i485
                                        #   in Loop: Header=BB23_55 Depth=1
	fsw	fa5, 0(s10)
	mv	s2, s6
.LBB23_54:                              # %invoke.cont61
                                        #   in Loop: Header=BB23_55 Depth=1
	addi	s10, s10, 4
	addi	s0, s0, -1
	addi	s1, s1, 4
	beqz	s0, .LBB23_110
.LBB23_55:                              # %for.body54
                                        # =>This Inner Loop Header: Depth=1
	lw	a0, 0(s9)
	flw	fa5, 0(a0)
	flw	fa4, 0(s1)
	fadd.s	fa5, fa5, fa4
	bne	s10, s8, .LBB23_53
# %bb.56:                               # %if.else.i488
                                        #   in Loop: Header=BB23_55 Depth=1
	sub	s11, s10, s6
	beq	s11, s3, .LBB23_169
# %bb.57:                               # %_ZNKSt6vectorIfSaIfEE12_M_check_lenEjPKc.exit.i.i493
                                        #   in Loop: Header=BB23_55 Depth=1
	srai	a1, s11, 2
	seqz	a0, a1
	add	a0, a0, a1
	add	a1, a1, a0
	mv	a2, a1
	bltu	a1, s7, .LBB23_59
# %bb.58:                               # %_ZNKSt6vectorIfSaIfEE12_M_check_lenEjPKc.exit.i.i493
                                        #   in Loop: Header=BB23_55 Depth=1
	mv	a2, s7
.LBB23_59:                              # %_ZNKSt6vectorIfSaIfEE12_M_check_lenEjPKc.exit.i.i493
                                        #   in Loop: Header=BB23_55 Depth=1
	fsw	fa5, 24(sp)                     # 4-byte Folded Spill
	mv	s5, s7
	bltu	a1, a0, .LBB23_61
# %bb.60:                               # %_ZNKSt6vectorIfSaIfEE12_M_check_lenEjPKc.exit.i.i493
                                        #   in Loop: Header=BB23_55 Depth=1
	mv	s5, a2
.LBB23_61:                              # %_ZNKSt6vectorIfSaIfEE12_M_check_lenEjPKc.exit.i.i493
                                        #   in Loop: Header=BB23_55 Depth=1
	slli	s5, s5, 2
.Ltmp245:
	mv	a0, s5
	call	_Znwj
.Ltmp246:
# %bb.62:                               # %call5.i.i.i.i.noexc514
                                        #   in Loop: Header=BB23_55 Depth=1
	mv	s2, a0
	add	s10, a0, s11
	flw	fa5, 24(sp)                     # 4-byte Folded Reload
	fsw	fa5, 0(s10)
	blez	s11, .LBB23_64
# %bb.63:                               # %if.then.i.i.i.i.i511
                                        #   in Loop: Header=BB23_55 Depth=1
	mv	a0, s2
	mv	a1, s6
	mv	a2, s11
	call	memcpy
.LBB23_64:                              # %_ZNSt6vectorIfSaIfEE11_S_relocateEPfS2_S2_RS0_.exit.i.i503
                                        #   in Loop: Header=BB23_55 Depth=1
	beqz	s6, .LBB23_66
# %bb.65:                               # %if.then.i36.i.i505
                                        #   in Loop: Header=BB23_55 Depth=1
	sub	a1, s8, s6
	mv	a0, s6
	call	_ZdlPvj
.LBB23_66:                              # %_ZNSt6vectorIfSaIfEE17_M_realloc_appendIJfEEEvDpOT_.exit.i508
                                        #   in Loop: Header=BB23_55 Depth=1
	add	s8, s2, s5
	mv	s6, s2
	lw	s11, 20(sp)                     # 4-byte Folded Reload
	j	.LBB23_54
.LBB23_67:
	li	s7, 0
	li	s10, 0
	li	s8, 0
.LBB23_68:                              # %for.cond.cleanup
.Ltmp267:
	addi	a0, sp, 52
	mv	s6, s7
	lw	a1, 12(sp)                      # 4-byte Folded Reload
	lw	s11, 20(sp)                     # 4-byte Folded Reload
	call	_ZNSt6vectorIiSaIiEEaSERKS1_
.Ltmp268:
	j	.LBB23_115
.LBB23_69:                              # %if.else67
	li	a3, 8
	bne	s1, a3, .LBB23_88
# %bb.70:                               # %if.else67
	li	a3, 4
	bne	a2, a3, .LBB23_88
# %bb.71:                               # %land.lhs.true74
	lw	a3, 0(a0)
	lw	a4, 4(s8)
	bne	a3, a4, .LBB23_88
# %bb.72:                               # %for.cond81.preheader
	lw	a0, 0(s9)
	lw	a1, 4(s9)
	lw	a3, 24(sp)                      # 4-byte Folded Reload
	beq	a1, a0, .LBB23_113
# %bb.73:                               # %for.body86.lr.ph
	li	s2, 0
	li	s3, 0
	li	s1, 0
	li	s8, 0
	li	s10, 0
	li	s6, 0
	lui	a1, 524288
	lui	a2, 131072
	addi	a1, a1, -4
	sw	a1, 8(sp)                       # 4-byte Folded Spill
	addi	s7, a2, -1
	sw	s7, 4(sp)                       # 4-byte Folded Spill
	j	.LBB23_76
.LBB23_74:                              # %if.then.i520
                                        #   in Loop: Header=BB23_76 Depth=1
	fsw	fa5, 0(s10)
	mv	s5, s6
.LBB23_75:                              # %invoke.cont94
                                        #   in Loop: Header=BB23_76 Depth=1
	addi	s3, s3, 1
	lw	a0, 0(s9)
	lw	a1, 4(s9)
	xor	a2, s3, a3
	seqz	a2, a2
	addi	a2, a2, -1
	and	s3, a2, s3
	addi	s10, s10, 4
	addi	s1, s1, 1
	sub	a1, a1, a0
	srai	a1, a1, 2
	addi	s2, s2, 4
	bgeu	s1, a1, .LBB23_114
.LBB23_76:                              # %for.body86
                                        # =>This Inner Loop Header: Depth=1
	add	a0, a0, s2
	flw	fa5, 0(a0)
	slli	a0, s3, 2
	add	a0, a0, s4
	flw	fa4, 0(a0)
	fadd.s	fa5, fa5, fa4
	bne	s10, s8, .LBB23_74
# %bb.77:                               # %if.else.i523
                                        #   in Loop: Header=BB23_76 Depth=1
	sub	s0, s10, s6
	lw	a0, 8(sp)                       # 4-byte Folded Reload
	beq	s0, a0, .LBB23_173
# %bb.78:                               # %_ZNKSt6vectorIfSaIfEE12_M_check_lenEjPKc.exit.i.i528
                                        #   in Loop: Header=BB23_76 Depth=1
	srai	a1, s0, 2
	seqz	a0, a1
	add	a0, a0, a1
	add	a1, a1, a0
	mv	a2, a1
	bltu	a1, s7, .LBB23_80
# %bb.79:                               # %_ZNKSt6vectorIfSaIfEE12_M_check_lenEjPKc.exit.i.i528
                                        #   in Loop: Header=BB23_76 Depth=1
	mv	a2, s7
.LBB23_80:                              # %_ZNKSt6vectorIfSaIfEE12_M_check_lenEjPKc.exit.i.i528
                                        #   in Loop: Header=BB23_76 Depth=1
	fsw	fa5, 12(sp)                     # 4-byte Folded Spill
	bltu	a1, a0, .LBB23_82
# %bb.81:                               # %_ZNKSt6vectorIfSaIfEE12_M_check_lenEjPKc.exit.i.i528
                                        #   in Loop: Header=BB23_76 Depth=1
	mv	s7, a2
.LBB23_82:                              # %_ZNKSt6vectorIfSaIfEE12_M_check_lenEjPKc.exit.i.i528
                                        #   in Loop: Header=BB23_76 Depth=1
	slli	s7, s7, 2
.Ltmp237:
	mv	a0, s7
	call	_Znwj
.Ltmp238:
# %bb.83:                               # %call5.i.i.i.i.noexc549
                                        #   in Loop: Header=BB23_76 Depth=1
	mv	s5, a0
	add	s10, a0, s0
	flw	fa5, 12(sp)                     # 4-byte Folded Reload
	fsw	fa5, 0(s10)
	blez	s0, .LBB23_85
# %bb.84:                               # %if.then.i.i.i.i.i546
                                        #   in Loop: Header=BB23_76 Depth=1
	mv	a0, s5
	mv	a1, s6
	mv	a2, s0
	call	memcpy
.LBB23_85:                              # %_ZNSt6vectorIfSaIfEE11_S_relocateEPfS2_S2_RS0_.exit.i.i538
                                        #   in Loop: Header=BB23_76 Depth=1
	beqz	s6, .LBB23_87
# %bb.86:                               # %if.then.i36.i.i540
                                        #   in Loop: Header=BB23_76 Depth=1
	sub	a1, s8, s6
	mv	a0, s6
	call	_ZdlPvj
.LBB23_87:                              # %_ZNSt6vectorIfSaIfEE17_M_realloc_appendIJfEEEvDpOT_.exit.i543
                                        #   in Loop: Header=BB23_76 Depth=1
	add	s8, s5, s7
	mv	s6, s5
	lw	a3, 24(sp)                      # 4-byte Folded Reload
	lw	s7, 4(sp)                       # 4-byte Folded Reload
	j	.LBB23_75
.LBB23_88:                              # %if.else100
	li	a3, 4
	bne	s1, a3, .LBB23_175
# %bb.89:                               # %if.else100
	li	a3, 8
	bne	a2, a3, .LBB23_175
# %bb.90:                               # %land.lhs.true107
	lw	a0, 4(a0)
	lw	a2, 0(s8)
	bne	a0, a2, .LBB23_175
# %bb.91:                               # %for.cond114.preheader
	sw	a5, 12(sp)                      # 4-byte Folded Spill
	lw	a0, 0(s9)
	lw	a1, 4(s9)
	beq	a1, a0, .LBB23_111
# %bb.92:                               # %for.body119.lr.ph
	li	s2, 0
	li	s11, 0
	li	s5, 0
	li	s8, 0
	li	s10, 0
	li	s6, 0
	lui	a1, 524288
	lui	s3, 131072
	addi	a1, a1, -4
	sw	a1, 4(sp)                       # 4-byte Folded Spill
	addi	s3, s3, -1
	lw	a3, 24(sp)                      # 4-byte Folded Reload
	j	.LBB23_95
.LBB23_93:                              # %if.then.i555
                                        #   in Loop: Header=BB23_95 Depth=1
	fsw	fa5, 0(s10)
	mv	s7, s6
.LBB23_94:                              # %invoke.cont128
                                        #   in Loop: Header=BB23_95 Depth=1
	addi	s11, s11, 1
	lw	a0, 0(s9)
	lw	a1, 4(s9)
	xor	a2, s11, a3
	seqz	a2, a2
	addi	a2, a2, -1
	and	s11, a2, s11
	addi	s10, s10, 4
	addi	s5, s5, 1
	sub	a1, a1, a0
	srai	a1, a1, 2
	addi	s2, s2, 4
	bgeu	s5, a1, .LBB23_112
.LBB23_95:                              # %for.body119
                                        # =>This Inner Loop Header: Depth=1
	add	a0, a0, s2
	flw	fa5, 0(a0)
	slli	a0, s11, 2
	add	a0, a0, s4
	flw	fa4, 0(a0)
	fadd.s	fa5, fa5, fa4
	bne	s10, s8, .LBB23_93
# %bb.96:                               # %if.else.i558
                                        #   in Loop: Header=BB23_95 Depth=1
	sub	s1, s10, s6
	lw	a0, 4(sp)                       # 4-byte Folded Reload
	beq	s1, a0, .LBB23_171
# %bb.97:                               # %_ZNKSt6vectorIfSaIfEE12_M_check_lenEjPKc.exit.i.i563
                                        #   in Loop: Header=BB23_95 Depth=1
	srai	a1, s1, 2
	seqz	a0, a1
	add	a0, a0, a1
	add	a1, a1, a0
	mv	a2, a1
	bltu	a1, s3, .LBB23_99
# %bb.98:                               # %_ZNKSt6vectorIfSaIfEE12_M_check_lenEjPKc.exit.i.i563
                                        #   in Loop: Header=BB23_95 Depth=1
	mv	a2, s3
.LBB23_99:                              # %_ZNKSt6vectorIfSaIfEE12_M_check_lenEjPKc.exit.i.i563
                                        #   in Loop: Header=BB23_95 Depth=1
	fsw	fa5, 8(sp)                      # 4-byte Folded Spill
	mv	s0, s3
	bltu	a1, a0, .LBB23_101
# %bb.100:                              # %_ZNKSt6vectorIfSaIfEE12_M_check_lenEjPKc.exit.i.i563
                                        #   in Loop: Header=BB23_95 Depth=1
	mv	s0, a2
.LBB23_101:                             # %_ZNKSt6vectorIfSaIfEE12_M_check_lenEjPKc.exit.i.i563
                                        #   in Loop: Header=BB23_95 Depth=1
	slli	s0, s0, 2
.Ltmp229:
	mv	a0, s0
	call	_Znwj
.Ltmp230:
# %bb.102:                              # %call5.i.i.i.i.noexc584
                                        #   in Loop: Header=BB23_95 Depth=1
	mv	s7, a0
	add	s10, a0, s1
	flw	fa5, 8(sp)                      # 4-byte Folded Reload
	fsw	fa5, 0(s10)
	blez	s1, .LBB23_104
# %bb.103:                              # %if.then.i.i.i.i.i581
                                        #   in Loop: Header=BB23_95 Depth=1
	mv	a0, s7
	mv	a1, s6
	mv	a2, s1
	call	memcpy
.LBB23_104:                             # %_ZNSt6vectorIfSaIfEE11_S_relocateEPfS2_S2_RS0_.exit.i.i573
                                        #   in Loop: Header=BB23_95 Depth=1
	beqz	s6, .LBB23_106
# %bb.105:                              # %if.then.i36.i.i575
                                        #   in Loop: Header=BB23_95 Depth=1
	sub	a1, s8, s6
	mv	a0, s6
	call	_ZdlPvj
.LBB23_106:                             # %_ZNSt6vectorIfSaIfEE17_M_realloc_appendIJfEEEvDpOT_.exit.i578
                                        #   in Loop: Header=BB23_95 Depth=1
	add	s8, s7, s0
	mv	s6, s7
	lw	a3, 24(sp)                      # 4-byte Folded Reload
	j	.LBB23_94
.LBB23_107:
	li	s7, 0
	li	s10, 0
	li	s8, 0
.LBB23_108:                             # %for.cond.cleanup26
.Ltmp259:
	addi	a0, sp, 52
	mv	s6, s7
	lw	a1, 12(sp)                      # 4-byte Folded Reload
	lw	s11, 20(sp)                     # 4-byte Folded Reload
	call	_ZNSt6vectorIiSaIiEEaSERKS1_
.Ltmp260:
	j	.LBB23_115
.LBB23_109:
	li	s2, 0
	li	s10, 0
	li	s8, 0
.LBB23_110:                             # %for.cond.cleanup53
.Ltmp251:
	addi	a0, sp, 52
	addi	a1, sp, 64
	mv	s6, s2
	call	_ZNSt6vectorIiSaIiEEaSERKS1_
.Ltmp252:
	j	.LBB23_115
.LBB23_111:
	li	s7, 0
	li	s10, 0
	li	s8, 0
.LBB23_112:                             # %for.cond.cleanup118
.Ltmp235:
	addi	a0, sp, 52
	mv	s6, s7
	lw	a1, 12(sp)                      # 4-byte Folded Reload
	lw	s11, 20(sp)                     # 4-byte Folded Reload
	call	_ZNSt6vectorIiSaIiEEaSERKS1_
.Ltmp236:
	j	.LBB23_115
.LBB23_113:
	li	s5, 0
	li	s10, 0
	li	s8, 0
.LBB23_114:                             # %for.cond.cleanup85
.Ltmp243:
	addi	a0, sp, 52
	addi	a1, sp, 64
	mv	s6, s5
	call	_ZNSt6vectorIiSaIiEEaSERKS1_
.Ltmp244:
.LBB23_115:                             # %if.end145
	sub	s0, s10, s6
	sw	zero, 40(sp)
	sw	zero, 44(sp)
	sw	zero, 48(sp)
	beq	s10, s6, .LBB23_118
# %bb.116:                              # %cond.true.i.i.i.i305
	srai	a0, s0, 2
	srli	a1, a0, 29
	bnez	a1, .LBB23_152
# %bb.117:                              # %_ZNSt15__new_allocatorIfE8allocateEjPKv.exit.i.i.i.i307
.Ltmp269:
	mv	a0, s0
	call	_Znwj
.Ltmp270:
	j	.LBB23_119
.LBB23_118:
	li	a0, 0
.LBB23_119:                             # %_ZNSt12_Vector_baseIfSaIfEEC2EjRKS0_.exit.i309
	add	s1, a0, s0
	li	a1, 5
	sw	a0, 40(sp)
	sw	a0, 44(sp)
	sw	s1, 48(sp)
	blt	s0, a1, .LBB23_143
# %bb.120:                              # %if.then.i.i.i.i.i.i.i.i.i320
	mv	a1, s6
	mv	a2, s0
	call	memmove
.LBB23_121:                             # %_ZNSt6vectorIfSaIfEEC2ERKS1_.exit328
	lw	s2, 52(sp)
	lw	a0, 56(sp)
	sw	s1, 44(sp)
	sub	s1, a0, s2
	sw	zero, 28(sp)
	sw	zero, 32(sp)
	sw	zero, 36(sp)
	beq	a0, s2, .LBB23_124
# %bb.122:                              # %cond.true.i.i.i.i337
	srai	a0, s1, 2
	srli	a1, a0, 29
	bnez	a1, .LBB23_155
# %bb.123:                              # %_ZNSt15__new_allocatorIiE8allocateEjPKv.exit.i.i.i.i
.Ltmp276:
	mv	a0, s1
	call	_Znwj
.Ltmp277:
	j	.LBB23_125
.LBB23_124:
	li	a0, 0
.LBB23_125:                             # %_ZNSt12_Vector_baseIiSaIiEEC2EjRKS0_.exit.i
	add	s0, a0, s1
	li	a1, 5
	sw	a0, 28(sp)
	sw	a0, 32(sp)
	sw	s0, 36(sp)
	blt	s1, a1, .LBB23_145
# %bb.126:                              # %if.then.i.i.i.i.i.i.i.i.i350
	mv	a1, s2
	mv	a2, s1
	call	memmove
.LBB23_127:                             # %_ZNSt6vectorIiSaIiEEC2ERKS1_.exit
	sw	s0, 32(sp)
.Ltmp283:
	addi	a1, sp, 40
	addi	a2, sp, 28
	lw	a0, 16(sp)                      # 4-byte Folded Reload
	call	_ZN6TensorIfEC1ESt6vectorIfSaIfEES1_IiSaIiEE
.Ltmp284:
# %bb.128:                              # %invoke.cont151
	lw	a0, 28(sp)
	beqz	a0, .LBB23_130
# %bb.129:                              # %if.then.i.i.i
	lw	a1, 36(sp)
	sub	a1, a1, a0
	call	_ZdlPvj
.LBB23_130:                             # %_ZNSt6vectorIiSaIiEED2Ev.exit
	lw	a0, 40(sp)
	beqz	a0, .LBB23_132
# %bb.131:                              # %if.then.i.i.i362
	lw	a1, 48(sp)
	sub	a1, a1, a0
	call	_ZdlPvj
.LBB23_132:                             # %_ZNSt6vectorIfSaIfEED2Ev.exit
	lw	a0, 52(sp)
	beqz	a0, .LBB23_134
# %bb.133:                              # %if.then.i.i.i368
	lw	a1, 60(sp)
	sub	a1, a1, a0
	call	_ZdlPvj
.LBB23_134:                             # %_ZNSt6vectorIiSaIiEED2Ev.exit373
	beqz	s6, .LBB23_136
# %bb.135:                              # %if.then.i.i.i375
	sub	a1, s8, s6
	mv	a0, s6
	call	_ZdlPvj
.LBB23_136:                             # %_ZNSt6vectorIfSaIfEED2Ev.exit380
	lw	a0, 64(sp)
	beqz	a0, .LBB23_138
# %bb.137:                              # %if.then.i.i.i382
	lw	a1, 72(sp)
	sub	a1, a1, a0
	call	_ZdlPvj
.LBB23_138:                             # %_ZNSt6vectorIiSaIiEED2Ev.exit387
	beqz	s4, .LBB23_140
# %bb.139:                              # %if.then.i.i.i389
	mv	a0, s4
	mv	a1, s11
	call	_ZdlPvj
.LBB23_140:                             # %_ZNSt6vectorIfSaIfEED2Ev.exit394
	lw	ra, 124(sp)                     # 4-byte Folded Reload
	lw	s0, 120(sp)                     # 4-byte Folded Reload
	lw	s1, 116(sp)                     # 4-byte Folded Reload
	lw	s2, 112(sp)                     # 4-byte Folded Reload
	lw	s3, 108(sp)                     # 4-byte Folded Reload
	lw	s4, 104(sp)                     # 4-byte Folded Reload
	lw	s5, 100(sp)                     # 4-byte Folded Reload
	lw	s6, 96(sp)                      # 4-byte Folded Reload
	lw	s7, 92(sp)                      # 4-byte Folded Reload
	lw	s8, 88(sp)                      # 4-byte Folded Reload
	lw	s9, 84(sp)                      # 4-byte Folded Reload
	lw	s10, 80(sp)                     # 4-byte Folded Reload
	lw	s11, 76(sp)                     # 4-byte Folded Reload
	.cfi_restore ra
	.cfi_restore s0
	.cfi_restore s1
	.cfi_restore s2
	.cfi_restore s3
	.cfi_restore s4
	.cfi_restore s5
	.cfi_restore s6
	.cfi_restore s7
	.cfi_restore s8
	.cfi_restore s9
	.cfi_restore s10
	.cfi_restore s11
	addi	sp, sp, 128
	.cfi_def_cfa_offset 0
	ret
.LBB23_141:                             # %if.else.i.i.i.i.i.i.i.i.i.i
	.cfi_restore_state
	li	a0, 4
	bne	s1, a0, .LBB23_14
# %bb.142:                              # %if.then2.i.i.i.i.i.i.i.i.i.i
	lw	a0, 0(s5)
	sw	a0, 0(s8)
	j	.LBB23_14
.LBB23_143:                             # %if.else.i.i.i.i.i.i.i.i.i316
	li	a1, 4
	bne	s0, a1, .LBB23_121
# %bb.144:                              # %if.then2.i.i.i.i.i.i.i.i.i319
	flw	fa5, 0(s6)
	fsw	fa5, 0(a0)
	j	.LBB23_121
.LBB23_145:                             # %if.else.i.i.i.i.i.i.i.i.i346
	li	a1, 4
	bne	s1, a1, .LBB23_127
# %bb.146:                              # %if.then2.i.i.i.i.i.i.i.i.i349
	lw	a1, 0(s2)
	sw	a1, 0(a0)
	j	.LBB23_127
.LBB23_147:                             # %if.then.i.i.i.i.i
	srli	a0, a2, 30
	beqz	a0, .LBB23_158
# %bb.148:                              # %if.then3.i.i.i.i.i
	call	_ZSt28__throw_bad_array_new_lengthv
.LBB23_149:                             # %if.then.i.i.i.i.i.i
	srli	a0, s6, 30
	beqz	a0, .LBB23_159
# %bb.150:                              # %if.then3.i.i.i.i.i.i
.Ltmp224:
	call	_ZSt28__throw_bad_array_new_lengthv
.Ltmp225:
# %bb.151:                              # %.noexc
.LBB23_152:                             # %if.then.i.i.i.i.i321
	srli	a0, a0, 30
	beqz	a0, .LBB23_161
# %bb.153:                              # %if.then3.i.i.i.i.i324
.Ltmp273:
	call	_ZSt28__throw_bad_array_new_lengthv
.Ltmp274:
# %bb.154:                              # %.noexc325
.LBB23_155:                             # %if.then.i.i.i.i.i351
	srli	a0, a0, 30
	beqz	a0, .LBB23_163
# %bb.156:                              # %if.then3.i.i.i.i.i354
.Ltmp280:
	call	_ZSt28__throw_bad_array_new_lengthv
.Ltmp281:
# %bb.157:                              # %.noexc355
.LBB23_158:                             # %if.end.i.i.i.i.i
	call	_ZSt17__throw_bad_allocv
.LBB23_159:                             # %if.end.i.i.i.i.i.i
.Ltmp222:
	call	_ZSt17__throw_bad_allocv
.Ltmp223:
# %bb.160:                              # %.noexc179
.LBB23_161:                             # %if.end.i.i.i.i.i323
.Ltmp271:
	call	_ZSt17__throw_bad_allocv
.Ltmp272:
# %bb.162:                              # %.noexc326
.LBB23_163:                             # %if.end.i.i.i.i.i353
.Ltmp278:
	call	_ZSt17__throw_bad_allocv
.Ltmp279:
# %bb.164:                              # %.noexc356
.LBB23_165:                             # %if.then.i.i.i444
.Ltmp264:
	lui	a0, %hi(.L.str.28)
	addi	a0, a0, %lo(.L.str.28)
	call	_ZSt20__throw_length_errorPKc
.Ltmp265:
# %bb.166:                              # %.noexc445
.LBB23_167:                             # %if.then.i.i.i477
.Ltmp256:
	lui	a0, %hi(.L.str.28)
	addi	a0, a0, %lo(.L.str.28)
	call	_ZSt20__throw_length_errorPKc
.Ltmp257:
# %bb.168:                              # %.noexc478
.LBB23_169:                             # %if.then.i.i.i512
.Ltmp248:
	lui	a0, %hi(.L.str.28)
	addi	a0, a0, %lo(.L.str.28)
	call	_ZSt20__throw_length_errorPKc
.Ltmp249:
# %bb.170:                              # %.noexc513
.LBB23_171:                             # %if.then.i.i.i582
.Ltmp232:
	lui	a0, %hi(.L.str.28)
	addi	a0, a0, %lo(.L.str.28)
	call	_ZSt20__throw_length_errorPKc
.Ltmp233:
# %bb.172:                              # %.noexc583
.LBB23_173:                             # %if.then.i.i.i547
.Ltmp240:
	lui	a0, %hi(.L.str.28)
	addi	a0, a0, %lo(.L.str.28)
	call	_ZSt20__throw_length_errorPKc
.Ltmp241:
# %bb.174:                              # %.noexc548
.LBB23_175:                             # %if.else135
	lui	a0, %hi(.L.str.9)
	addi	a0, a0, %lo(.L.str.9)
	mv	a2, s6
	call	printf
.Ltmp227:
	li	s6, 0
	li	a0, 1
	li	s8, 0
	call	exit
.Ltmp228:
# %bb.176:                              # %invoke.cont141
.LBB23_177:                             # %lpad93.loopexit
.Ltmp239:
	j	.LBB23_201
.LBB23_178:                             # %lpad93.loopexit.split-lp
.Ltmp242:
	j	.LBB23_190
.LBB23_179:                             # %lpad127.loopexit
.Ltmp231:
	j	.LBB23_190
.LBB23_180:                             # %lpad127.loopexit.split-lp
.Ltmp234:
	j	.LBB23_190
.LBB23_181:                             # %lpad60.loopexit
.Ltmp247:
	j	.LBB23_190
.LBB23_182:                             # %lpad60.loopexit.split-lp
.Ltmp250:
	j	.LBB23_190
.LBB23_183:                             # %lpad150
.Ltmp285:
	lw	a2, 28(sp)
	mv	s0, a0
	beqz	a2, .LBB23_185
# %bb.184:                              # %if.then.i.i.i396
	lw	a1, 36(sp)
	sub	a1, a1, a2
	mv	a0, a2
	call	_ZdlPvj
.LBB23_185:                             # %ehcleanup
	lw	s11, 20(sp)                     # 4-byte Folded Reload
	j	.LBB23_192
.LBB23_186:                             # %lpad33.loopexit
.Ltmp255:
	j	.LBB23_190
.LBB23_187:                             # %lpad33.loopexit.split-lp
.Ltmp258:
	j	.LBB23_190
.LBB23_188:                             # %lpad9.loopexit
.Ltmp263:
	j	.LBB23_190
.LBB23_189:                             # %lpad9.loopexit.split-lp
.Ltmp266:
.LBB23_190:                             # %ehcleanup152
	mv	s0, a0
	lw	s11, 20(sp)                     # 4-byte Folded Reload
	lw	a0, 52(sp)
	beqz	a0, .LBB23_194
	j	.LBB23_202
.LBB23_191:                             # %lpad148
.Ltmp282:
	mv	s0, a0
.LBB23_192:                             # %ehcleanup
	lw	a0, 40(sp)
	bnez	a0, .LBB23_198
# %bb.193:                              # %ehcleanup152
	lw	a0, 52(sp)
	bnez	a0, .LBB23_202
.LBB23_194:                             # %_ZNSt6vectorIiSaIiEED2Ev.exit415
	bnez	s6, .LBB23_203
.LBB23_195:                             # %_ZNSt6vectorIfSaIfEED2Ev.exit422
	lw	a0, 64(sp)
	bnez	a0, .LBB23_204
.LBB23_196:                             # %ehcleanup157
	bnez	s4, .LBB23_205
.LBB23_197:                             # %_ZNSt6vectorIfSaIfEED2Ev.exit436
	mv	a0, s0
	call	_Unwind_Resume
.LBB23_198:                             # %if.then.i.i.i403
	lw	a1, 48(sp)
	sub	a1, a1, a0
	call	_ZdlPvj
	lw	a0, 52(sp)
	beqz	a0, .LBB23_194
	j	.LBB23_202
.LBB23_199:                             # %lpad
.Ltmp226:
	mv	s0, a0
	beqz	s4, .LBB23_197
	j	.LBB23_205
.LBB23_200:                             # %lpad12
.Ltmp275:
.LBB23_201:                             # %lpad12
	mv	s0, a0
	lw	a0, 52(sp)
	beqz	a0, .LBB23_194
.LBB23_202:                             # %if.then.i.i.i410
	lw	a1, 60(sp)
	sub	a1, a1, a0
	call	_ZdlPvj
	beqz	s6, .LBB23_195
.LBB23_203:                             # %if.then.i.i.i417
	sub	a1, s8, s6
	mv	a0, s6
	call	_ZdlPvj
	lw	a0, 64(sp)
	beqz	a0, .LBB23_196
.LBB23_204:                             # %if.then.i.i.i424
	lw	a1, 72(sp)
	sub	a1, a1, a0
	call	_ZdlPvj
	beqz	s4, .LBB23_197
.LBB23_205:                             # %if.then.i.i.i431
	mv	a0, s4
	mv	a1, s11
	call	_ZdlPvj
	mv	a0, s0
	call	_Unwind_Resume
.Lfunc_end23:
	.size	_ZNK6TensorIfE3addERKS0_, .Lfunc_end23-_ZNK6TensorIfE3addERKS0_
	.cfi_endproc
	.section	.gcc_except_table._ZNK6TensorIfE3addERKS0_,"aG",@progbits,_ZNK6TensorIfE3addERKS0_,comdat
	.p2align	2, 0x0
GCC_except_table23:
.Lexception11:
	.byte	255                             # @LPStart Encoding = omit
	.byte	255                             # @TType Encoding = omit
	.byte	3                               # Call site Encoding = udata4
	.uleb128 .Lcst_end11-.Lcst_begin11
.Lcst_begin11:
	.word	.Lfunc_begin11-.Lfunc_begin11   # >> Call Site 1 <<
	.word	.Ltmp220-.Lfunc_begin11         #   Call between .Lfunc_begin11 and .Ltmp220
	.word	0                               #     has no landing pad
	.byte	0                               #   On action: cleanup
	.word	.Ltmp220-.Lfunc_begin11         # >> Call Site 2 <<
	.word	.Ltmp221-.Ltmp220               #   Call between .Ltmp220 and .Ltmp221
	.word	.Ltmp226-.Lfunc_begin11         #     jumps to .Ltmp226
	.byte	0                               #   On action: cleanup
	.word	.Ltmp221-.Lfunc_begin11         # >> Call Site 3 <<
	.word	.Ltmp261-.Ltmp221               #   Call between .Ltmp221 and .Ltmp261
	.word	0                               #     has no landing pad
	.byte	0                               #   On action: cleanup
	.word	.Ltmp261-.Lfunc_begin11         # >> Call Site 4 <<
	.word	.Ltmp262-.Ltmp261               #   Call between .Ltmp261 and .Ltmp262
	.word	.Ltmp263-.Lfunc_begin11         #     jumps to .Ltmp263
	.byte	0                               #   On action: cleanup
	.word	.Ltmp262-.Lfunc_begin11         # >> Call Site 5 <<
	.word	.Ltmp253-.Ltmp262               #   Call between .Ltmp262 and .Ltmp253
	.word	0                               #     has no landing pad
	.byte	0                               #   On action: cleanup
	.word	.Ltmp253-.Lfunc_begin11         # >> Call Site 6 <<
	.word	.Ltmp254-.Ltmp253               #   Call between .Ltmp253 and .Ltmp254
	.word	.Ltmp255-.Lfunc_begin11         #     jumps to .Ltmp255
	.byte	0                               #   On action: cleanup
	.word	.Ltmp254-.Lfunc_begin11         # >> Call Site 7 <<
	.word	.Ltmp245-.Ltmp254               #   Call between .Ltmp254 and .Ltmp245
	.word	0                               #     has no landing pad
	.byte	0                               #   On action: cleanup
	.word	.Ltmp245-.Lfunc_begin11         # >> Call Site 8 <<
	.word	.Ltmp246-.Ltmp245               #   Call between .Ltmp245 and .Ltmp246
	.word	.Ltmp247-.Lfunc_begin11         #     jumps to .Ltmp247
	.byte	0                               #   On action: cleanup
	.word	.Ltmp246-.Lfunc_begin11         # >> Call Site 9 <<
	.word	.Ltmp267-.Ltmp246               #   Call between .Ltmp246 and .Ltmp267
	.word	0                               #     has no landing pad
	.byte	0                               #   On action: cleanup
	.word	.Ltmp267-.Lfunc_begin11         # >> Call Site 10 <<
	.word	.Ltmp268-.Ltmp267               #   Call between .Ltmp267 and .Ltmp268
	.word	.Ltmp275-.Lfunc_begin11         #     jumps to .Ltmp275
	.byte	0                               #   On action: cleanup
	.word	.Ltmp237-.Lfunc_begin11         # >> Call Site 11 <<
	.word	.Ltmp238-.Ltmp237               #   Call between .Ltmp237 and .Ltmp238
	.word	.Ltmp239-.Lfunc_begin11         #     jumps to .Ltmp239
	.byte	0                               #   On action: cleanup
	.word	.Ltmp238-.Lfunc_begin11         # >> Call Site 12 <<
	.word	.Ltmp229-.Ltmp238               #   Call between .Ltmp238 and .Ltmp229
	.word	0                               #     has no landing pad
	.byte	0                               #   On action: cleanup
	.word	.Ltmp229-.Lfunc_begin11         # >> Call Site 13 <<
	.word	.Ltmp230-.Ltmp229               #   Call between .Ltmp229 and .Ltmp230
	.word	.Ltmp231-.Lfunc_begin11         #     jumps to .Ltmp231
	.byte	0                               #   On action: cleanup
	.word	.Ltmp230-.Lfunc_begin11         # >> Call Site 14 <<
	.word	.Ltmp259-.Ltmp230               #   Call between .Ltmp230 and .Ltmp259
	.word	0                               #     has no landing pad
	.byte	0                               #   On action: cleanup
	.word	.Ltmp259-.Lfunc_begin11         # >> Call Site 15 <<
	.word	.Ltmp270-.Ltmp259               #   Call between .Ltmp259 and .Ltmp270
	.word	.Ltmp275-.Lfunc_begin11         #     jumps to .Ltmp275
	.byte	0                               #   On action: cleanup
	.word	.Ltmp270-.Lfunc_begin11         # >> Call Site 16 <<
	.word	.Ltmp276-.Ltmp270               #   Call between .Ltmp270 and .Ltmp276
	.word	0                               #     has no landing pad
	.byte	0                               #   On action: cleanup
	.word	.Ltmp276-.Lfunc_begin11         # >> Call Site 17 <<
	.word	.Ltmp277-.Ltmp276               #   Call between .Ltmp276 and .Ltmp277
	.word	.Ltmp282-.Lfunc_begin11         #     jumps to .Ltmp282
	.byte	0                               #   On action: cleanup
	.word	.Ltmp277-.Lfunc_begin11         # >> Call Site 18 <<
	.word	.Ltmp283-.Ltmp277               #   Call between .Ltmp277 and .Ltmp283
	.word	0                               #     has no landing pad
	.byte	0                               #   On action: cleanup
	.word	.Ltmp283-.Lfunc_begin11         # >> Call Site 19 <<
	.word	.Ltmp284-.Ltmp283               #   Call between .Ltmp283 and .Ltmp284
	.word	.Ltmp285-.Lfunc_begin11         #     jumps to .Ltmp285
	.byte	0                               #   On action: cleanup
	.word	.Ltmp284-.Lfunc_begin11         # >> Call Site 20 <<
	.word	.Ltmp224-.Ltmp284               #   Call between .Ltmp284 and .Ltmp224
	.word	0                               #     has no landing pad
	.byte	0                               #   On action: cleanup
	.word	.Ltmp224-.Lfunc_begin11         # >> Call Site 21 <<
	.word	.Ltmp225-.Ltmp224               #   Call between .Ltmp224 and .Ltmp225
	.word	.Ltmp226-.Lfunc_begin11         #     jumps to .Ltmp226
	.byte	0                               #   On action: cleanup
	.word	.Ltmp273-.Lfunc_begin11         # >> Call Site 22 <<
	.word	.Ltmp274-.Ltmp273               #   Call between .Ltmp273 and .Ltmp274
	.word	.Ltmp275-.Lfunc_begin11         #     jumps to .Ltmp275
	.byte	0                               #   On action: cleanup
	.word	.Ltmp280-.Lfunc_begin11         # >> Call Site 23 <<
	.word	.Ltmp281-.Ltmp280               #   Call between .Ltmp280 and .Ltmp281
	.word	.Ltmp282-.Lfunc_begin11         #     jumps to .Ltmp282
	.byte	0                               #   On action: cleanup
	.word	.Ltmp281-.Lfunc_begin11         # >> Call Site 24 <<
	.word	.Ltmp222-.Ltmp281               #   Call between .Ltmp281 and .Ltmp222
	.word	0                               #     has no landing pad
	.byte	0                               #   On action: cleanup
	.word	.Ltmp222-.Lfunc_begin11         # >> Call Site 25 <<
	.word	.Ltmp223-.Ltmp222               #   Call between .Ltmp222 and .Ltmp223
	.word	.Ltmp226-.Lfunc_begin11         #     jumps to .Ltmp226
	.byte	0                               #   On action: cleanup
	.word	.Ltmp271-.Lfunc_begin11         # >> Call Site 26 <<
	.word	.Ltmp272-.Ltmp271               #   Call between .Ltmp271 and .Ltmp272
	.word	.Ltmp275-.Lfunc_begin11         #     jumps to .Ltmp275
	.byte	0                               #   On action: cleanup
	.word	.Ltmp278-.Lfunc_begin11         # >> Call Site 27 <<
	.word	.Ltmp279-.Ltmp278               #   Call between .Ltmp278 and .Ltmp279
	.word	.Ltmp282-.Lfunc_begin11         #     jumps to .Ltmp282
	.byte	0                               #   On action: cleanup
	.word	.Ltmp264-.Lfunc_begin11         # >> Call Site 28 <<
	.word	.Ltmp265-.Ltmp264               #   Call between .Ltmp264 and .Ltmp265
	.word	.Ltmp266-.Lfunc_begin11         #     jumps to .Ltmp266
	.byte	0                               #   On action: cleanup
	.word	.Ltmp256-.Lfunc_begin11         # >> Call Site 29 <<
	.word	.Ltmp257-.Ltmp256               #   Call between .Ltmp256 and .Ltmp257
	.word	.Ltmp258-.Lfunc_begin11         #     jumps to .Ltmp258
	.byte	0                               #   On action: cleanup
	.word	.Ltmp248-.Lfunc_begin11         # >> Call Site 30 <<
	.word	.Ltmp249-.Ltmp248               #   Call between .Ltmp248 and .Ltmp249
	.word	.Ltmp250-.Lfunc_begin11         #     jumps to .Ltmp250
	.byte	0                               #   On action: cleanup
	.word	.Ltmp232-.Lfunc_begin11         # >> Call Site 31 <<
	.word	.Ltmp233-.Ltmp232               #   Call between .Ltmp232 and .Ltmp233
	.word	.Ltmp234-.Lfunc_begin11         #     jumps to .Ltmp234
	.byte	0                               #   On action: cleanup
	.word	.Ltmp240-.Lfunc_begin11         # >> Call Site 32 <<
	.word	.Ltmp241-.Ltmp240               #   Call between .Ltmp240 and .Ltmp241
	.word	.Ltmp242-.Lfunc_begin11         #     jumps to .Ltmp242
	.byte	0                               #   On action: cleanup
	.word	.Ltmp227-.Lfunc_begin11         # >> Call Site 33 <<
	.word	.Ltmp228-.Ltmp227               #   Call between .Ltmp227 and .Ltmp228
	.word	.Ltmp275-.Lfunc_begin11         #     jumps to .Ltmp275
	.byte	0                               #   On action: cleanup
	.word	.Ltmp228-.Lfunc_begin11         # >> Call Site 34 <<
	.word	.Lfunc_end23-.Ltmp228           #   Call between .Ltmp228 and .Lfunc_end23
	.word	0                               #     has no landing pad
	.byte	0                               #   On action: cleanup
.Lcst_end11:
	.p2align	2, 0x0
                                        # -- End function
	.section	.text._ZNK6TensorIfEplERKS0_,"axG",@progbits,_ZNK6TensorIfEplERKS0_,comdat
	.weak	_ZNK6TensorIfEplERKS0_          # -- Begin function _ZNK6TensorIfEplERKS0_
	.p2align	1
	.type	_ZNK6TensorIfEplERKS0_,@function
_ZNK6TensorIfEplERKS0_:                 # @_ZNK6TensorIfEplERKS0_
	.cfi_startproc
# %bb.0:                                # %entry
	addi	sp, sp, -16
	.cfi_def_cfa_offset 16
	sw	ra, 12(sp)                      # 4-byte Folded Spill
	.cfi_offset ra, -4
	call	_ZNK6TensorIfE3addERKS0_
	lw	ra, 12(sp)                      # 4-byte Folded Reload
	.cfi_restore ra
	addi	sp, sp, 16
	.cfi_def_cfa_offset 0
	ret
.Lfunc_end24:
	.size	_ZNK6TensorIfEplERKS0_, .Lfunc_end24-_ZNK6TensorIfEplERKS0_
	.cfi_endproc
                                        # -- End function
	.section	.text._ZNK6TensorIfEplEf,"axG",@progbits,_ZNK6TensorIfEplEf,comdat
	.weak	_ZNK6TensorIfEplEf              # -- Begin function _ZNK6TensorIfEplEf
	.p2align	1
	.type	_ZNK6TensorIfEplEf,@function
_ZNK6TensorIfEplEf:                     # @_ZNK6TensorIfEplEf
.Lfunc_begin12:
	.cfi_startproc
	.cfi_personality 155, DW.ref.__gxx_personality_v0
	.cfi_lsda 27, .Lexception12
# %bb.0:                                # %entry
	addi	sp, sp, -64
	.cfi_def_cfa_offset 64
	sw	ra, 60(sp)                      # 4-byte Folded Spill
	sw	s0, 56(sp)                      # 4-byte Folded Spill
	sw	s1, 52(sp)                      # 4-byte Folded Spill
	sw	s2, 48(sp)                      # 4-byte Folded Spill
	sw	s3, 44(sp)                      # 4-byte Folded Spill
	sw	s4, 40(sp)                      # 4-byte Folded Spill
	sw	s5, 36(sp)                      # 4-byte Folded Spill
	sw	s6, 32(sp)                      # 4-byte Folded Spill
	sw	s7, 28(sp)                      # 4-byte Folded Spill
	.cfi_offset ra, -4
	.cfi_offset s0, -8
	.cfi_offset s1, -12
	.cfi_offset s2, -16
	.cfi_offset s3, -20
	.cfi_offset s4, -24
	.cfi_offset s5, -28
	.cfi_offset s6, -32
	.cfi_offset s7, -36
	.cfi_remember_state
	mv	s5, a2
	mv	s7, a1
	mv	s2, a0
	lw	s0, 0(a1)
	lw	s1, 4(a1)
	sub	s4, s1, s0
	srai	s6, s4, 2
	beq	s1, s0, .LBB25_10
# %bb.1:                                # %cond.true.i.i.i.i
	srli	a0, s6, 29
	bnez	a0, .LBB25_34
# %bb.2:                                # %_ZNSt15__new_allocatorIfE8allocateEjPKv.exit.i.i.i.i
	mv	a0, s4
	call	_Znwj
	mv	s3, a0
	li	a0, 5
	blt	s4, a0, .LBB25_11
.LBB25_3:                               # %if.then.i.i.i.i.i.i.i.i.i
	mv	a0, s3
	mv	a1, s0
	mv	a2, s4
	call	memmove
.LBB25_4:                               # %_ZNSt6vectorIfSaIfEEC2ERKS1_.exit
	beq	s1, s0, .LBB25_7
# %bb.5:
	fmv.w.x	fa5, s5
	mv	a0, s4
	mv	a1, s3
.LBB25_6:                               # %for.body
                                        # =>This Inner Loop Header: Depth=1
	flw	fa4, 0(a1)
	addi	a0, a0, -4
	fadd.s	fa4, fa5, fa4
	fsw	fa4, 0(a1)
	addi	a1, a1, 4
	bnez	a0, .LBB25_6
.LBB25_7:                               # %for.cond.cleanup
	sw	zero, 16(sp)
	sw	zero, 20(sp)
	sw	zero, 24(sp)
	beq	s1, s0, .LBB25_13
# %bb.8:                                # %cond.true.i.i.i.i28
	srli	a0, s6, 29
	bnez	a0, .LBB25_36
# %bb.9:                                # %_ZNSt15__new_allocatorIfE8allocateEjPKv.exit.i.i.i.i30
.Ltmp286:
	mv	a0, s4
	call	_Znwj
.Ltmp287:
	j	.LBB25_14
.LBB25_10:
	li	s3, 0
	li	a0, 5
	bge	s4, a0, .LBB25_3
.LBB25_11:                              # %if.else.i.i.i.i.i.i.i.i.i
	li	a0, 4
	bne	s4, a0, .LBB25_4
# %bb.12:                               # %if.then2.i.i.i.i.i.i.i.i.i
	flw	fa5, 0(s0)
	fsw	fa5, 0(s3)
	j	.LBB25_4
.LBB25_13:
	li	a0, 0
.LBB25_14:                              # %_ZNSt12_Vector_baseIfSaIfEEC2EjRKS0_.exit.i32
	add	s1, a0, s4
	li	a1, 5
	sw	a0, 16(sp)
	sw	a0, 20(sp)
	sw	s1, 24(sp)
	blt	s4, a1, .LBB25_30
# %bb.15:                               # %if.then.i.i.i.i.i.i.i.i.i43
	mv	a1, s3
	mv	a2, s4
	call	memcpy
.LBB25_16:                              # %_ZNSt6vectorIfSaIfEEC2ERKS1_.exit50
	lw	s5, 12(s7)
	lw	a0, 16(s7)
	sw	s1, 20(sp)
	sub	s1, a0, s5
	sw	zero, 4(sp)
	sw	zero, 8(sp)
	sw	zero, 12(sp)
	beq	a0, s5, .LBB25_19
# %bb.17:                               # %cond.true.i.i.i.i59
	srai	a0, s1, 2
	srli	a1, a0, 29
	bnez	a1, .LBB25_39
# %bb.18:                               # %_ZNSt15__new_allocatorIiE8allocateEjPKv.exit.i.i.i.i
.Ltmp293:
	mv	a0, s1
	call	_Znwj
.Ltmp294:
	j	.LBB25_20
.LBB25_19:
	li	a0, 0
.LBB25_20:                              # %_ZNSt12_Vector_baseIiSaIiEEC2EjRKS0_.exit.i
	add	s0, a0, s1
	li	a1, 5
	sw	a0, 4(sp)
	sw	a0, 8(sp)
	sw	s0, 12(sp)
	blt	s1, a1, .LBB25_32
# %bb.21:                               # %if.then.i.i.i.i.i.i.i.i.i72
	mv	a1, s5
	mv	a2, s1
	call	memmove
.LBB25_22:                              # %_ZNSt6vectorIiSaIiEEC2ERKS1_.exit
	sw	s0, 8(sp)
.Ltmp300:
	addi	a1, sp, 16
	addi	a2, sp, 4
	mv	a0, s2
	call	_ZN6TensorIfEC1ESt6vectorIfSaIfEES1_IiSaIiEE
.Ltmp301:
# %bb.23:                               # %invoke.cont12
	lw	a0, 4(sp)
	beqz	a0, .LBB25_25
# %bb.24:                               # %if.then.i.i.i
	lw	a1, 12(sp)
	sub	a1, a1, a0
	call	_ZdlPvj
.LBB25_25:                              # %_ZNSt6vectorIiSaIiEED2Ev.exit
	lw	a0, 16(sp)
	beqz	a0, .LBB25_27
# %bb.26:                               # %if.then.i.i.i84
	lw	a1, 24(sp)
	sub	a1, a1, a0
	call	_ZdlPvj
.LBB25_27:                              # %_ZNSt6vectorIfSaIfEED2Ev.exit
	beqz	s3, .LBB25_29
# %bb.28:                               # %if.then.i.i.i90
	mv	a0, s3
	mv	a1, s4
	call	_ZdlPvj
.LBB25_29:                              # %_ZNSt6vectorIfSaIfEED2Ev.exit95
	lw	ra, 60(sp)                      # 4-byte Folded Reload
	lw	s0, 56(sp)                      # 4-byte Folded Reload
	lw	s1, 52(sp)                      # 4-byte Folded Reload
	lw	s2, 48(sp)                      # 4-byte Folded Reload
	lw	s3, 44(sp)                      # 4-byte Folded Reload
	lw	s4, 40(sp)                      # 4-byte Folded Reload
	lw	s5, 36(sp)                      # 4-byte Folded Reload
	lw	s6, 32(sp)                      # 4-byte Folded Reload
	lw	s7, 28(sp)                      # 4-byte Folded Reload
	.cfi_restore ra
	.cfi_restore s0
	.cfi_restore s1
	.cfi_restore s2
	.cfi_restore s3
	.cfi_restore s4
	.cfi_restore s5
	.cfi_restore s6
	.cfi_restore s7
	addi	sp, sp, 64
	.cfi_def_cfa_offset 0
	ret
.LBB25_30:                              # %if.else.i.i.i.i.i.i.i.i.i39
	.cfi_restore_state
	li	a1, 4
	bne	s4, a1, .LBB25_16
# %bb.31:                               # %if.then2.i.i.i.i.i.i.i.i.i42
	flw	fa5, 0(s3)
	fsw	fa5, 0(a0)
	j	.LBB25_16
.LBB25_32:                              # %if.else.i.i.i.i.i.i.i.i.i68
	li	a1, 4
	bne	s1, a1, .LBB25_22
# %bb.33:                               # %if.then2.i.i.i.i.i.i.i.i.i71
	lw	a1, 0(s5)
	sw	a1, 0(a0)
	j	.LBB25_22
.LBB25_34:                              # %if.then.i.i.i.i.i
	srli	a0, s6, 30
	beqz	a0, .LBB25_42
# %bb.35:                               # %if.then3.i.i.i.i.i
	call	_ZSt28__throw_bad_array_new_lengthv
.LBB25_36:                              # %if.then.i.i.i.i.i44
	srli	a0, s6, 30
	beqz	a0, .LBB25_43
# %bb.37:                               # %if.then3.i.i.i.i.i47
.Ltmp290:
	call	_ZSt28__throw_bad_array_new_lengthv
.Ltmp291:
# %bb.38:                               # %.noexc
.LBB25_39:                              # %if.then.i.i.i.i.i73
	srli	a0, a0, 30
	beqz	a0, .LBB25_45
# %bb.40:                               # %if.then3.i.i.i.i.i76
.Ltmp297:
	call	_ZSt28__throw_bad_array_new_lengthv
.Ltmp298:
# %bb.41:                               # %.noexc77
.LBB25_42:                              # %if.end.i.i.i.i.i
	call	_ZSt17__throw_bad_allocv
.LBB25_43:                              # %if.end.i.i.i.i.i46
.Ltmp288:
	call	_ZSt17__throw_bad_allocv
.Ltmp289:
# %bb.44:                               # %.noexc48
.LBB25_45:                              # %if.end.i.i.i.i.i75
.Ltmp295:
	call	_ZSt17__throw_bad_allocv
.Ltmp296:
# %bb.46:                               # %.noexc78
.LBB25_47:                              # %lpad11
.Ltmp302:
	lw	a2, 4(sp)
	mv	s0, a0
	bnez	a2, .LBB25_51
# %bb.48:                               # %ehcleanup
	lw	a0, 16(sp)
	bnez	a0, .LBB25_53
.LBB25_49:                              # %ehcleanup13
	bnez	s3, .LBB25_55
.LBB25_50:                              # %_ZNSt6vectorIfSaIfEED2Ev.exit116
	mv	a0, s0
	call	_Unwind_Resume
.LBB25_51:                              # %if.then.i.i.i97
	lw	a1, 12(sp)
	sub	a1, a1, a2
	mv	a0, a2
	call	_ZdlPvj
	lw	a0, 16(sp)
	beqz	a0, .LBB25_49
	j	.LBB25_53
.LBB25_52:                              # %lpad9
.Ltmp299:
	mv	s0, a0
	lw	a0, 16(sp)
	beqz	a0, .LBB25_49
.LBB25_53:                              # %if.then.i.i.i104
	lw	a1, 24(sp)
	sub	a1, a1, a0
	call	_ZdlPvj
	beqz	s3, .LBB25_50
	j	.LBB25_55
.LBB25_54:                              # %lpad
.Ltmp292:
	mv	s0, a0
	beqz	s3, .LBB25_50
.LBB25_55:                              # %if.then.i.i.i111
	mv	a0, s3
	mv	a1, s4
	call	_ZdlPvj
	mv	a0, s0
	call	_Unwind_Resume
.Lfunc_end25:
	.size	_ZNK6TensorIfEplEf, .Lfunc_end25-_ZNK6TensorIfEplEf
	.cfi_endproc
	.section	.gcc_except_table._ZNK6TensorIfEplEf,"aG",@progbits,_ZNK6TensorIfEplEf,comdat
	.p2align	2, 0x0
GCC_except_table25:
.Lexception12:
	.byte	255                             # @LPStart Encoding = omit
	.byte	255                             # @TType Encoding = omit
	.byte	3                               # Call site Encoding = udata4
	.uleb128 .Lcst_end12-.Lcst_begin12
.Lcst_begin12:
	.word	.Lfunc_begin12-.Lfunc_begin12   # >> Call Site 1 <<
	.word	.Ltmp286-.Lfunc_begin12         #   Call between .Lfunc_begin12 and .Ltmp286
	.word	0                               #     has no landing pad
	.byte	0                               #   On action: cleanup
	.word	.Ltmp286-.Lfunc_begin12         # >> Call Site 2 <<
	.word	.Ltmp287-.Ltmp286               #   Call between .Ltmp286 and .Ltmp287
	.word	.Ltmp292-.Lfunc_begin12         #     jumps to .Ltmp292
	.byte	0                               #   On action: cleanup
	.word	.Ltmp287-.Lfunc_begin12         # >> Call Site 3 <<
	.word	.Ltmp293-.Ltmp287               #   Call between .Ltmp287 and .Ltmp293
	.word	0                               #     has no landing pad
	.byte	0                               #   On action: cleanup
	.word	.Ltmp293-.Lfunc_begin12         # >> Call Site 4 <<
	.word	.Ltmp294-.Ltmp293               #   Call between .Ltmp293 and .Ltmp294
	.word	.Ltmp299-.Lfunc_begin12         #     jumps to .Ltmp299
	.byte	0                               #   On action: cleanup
	.word	.Ltmp294-.Lfunc_begin12         # >> Call Site 5 <<
	.word	.Ltmp300-.Ltmp294               #   Call between .Ltmp294 and .Ltmp300
	.word	0                               #     has no landing pad
	.byte	0                               #   On action: cleanup
	.word	.Ltmp300-.Lfunc_begin12         # >> Call Site 6 <<
	.word	.Ltmp301-.Ltmp300               #   Call between .Ltmp300 and .Ltmp301
	.word	.Ltmp302-.Lfunc_begin12         #     jumps to .Ltmp302
	.byte	0                               #   On action: cleanup
	.word	.Ltmp301-.Lfunc_begin12         # >> Call Site 7 <<
	.word	.Ltmp290-.Ltmp301               #   Call between .Ltmp301 and .Ltmp290
	.word	0                               #     has no landing pad
	.byte	0                               #   On action: cleanup
	.word	.Ltmp290-.Lfunc_begin12         # >> Call Site 8 <<
	.word	.Ltmp291-.Ltmp290               #   Call between .Ltmp290 and .Ltmp291
	.word	.Ltmp292-.Lfunc_begin12         #     jumps to .Ltmp292
	.byte	0                               #   On action: cleanup
	.word	.Ltmp297-.Lfunc_begin12         # >> Call Site 9 <<
	.word	.Ltmp298-.Ltmp297               #   Call between .Ltmp297 and .Ltmp298
	.word	.Ltmp299-.Lfunc_begin12         #     jumps to .Ltmp299
	.byte	0                               #   On action: cleanup
	.word	.Ltmp298-.Lfunc_begin12         # >> Call Site 10 <<
	.word	.Ltmp288-.Ltmp298               #   Call between .Ltmp298 and .Ltmp288
	.word	0                               #     has no landing pad
	.byte	0                               #   On action: cleanup
	.word	.Ltmp288-.Lfunc_begin12         # >> Call Site 11 <<
	.word	.Ltmp289-.Ltmp288               #   Call between .Ltmp288 and .Ltmp289
	.word	.Ltmp292-.Lfunc_begin12         #     jumps to .Ltmp292
	.byte	0                               #   On action: cleanup
	.word	.Ltmp295-.Lfunc_begin12         # >> Call Site 12 <<
	.word	.Ltmp296-.Ltmp295               #   Call between .Ltmp295 and .Ltmp296
	.word	.Ltmp299-.Lfunc_begin12         #     jumps to .Ltmp299
	.byte	0                               #   On action: cleanup
	.word	.Ltmp296-.Lfunc_begin12         # >> Call Site 13 <<
	.word	.Lfunc_end25-.Ltmp296           #   Call between .Ltmp296 and .Lfunc_end25
	.word	0                               #     has no landing pad
	.byte	0                               #   On action: cleanup
.Lcst_end12:
	.p2align	2, 0x0
                                        # -- End function
	.section	.text._ZNK6TensorIfE3subERKS0_,"axG",@progbits,_ZNK6TensorIfE3subERKS0_,comdat
	.weak	_ZNK6TensorIfE3subERKS0_        # -- Begin function _ZNK6TensorIfE3subERKS0_
	.p2align	1
	.type	_ZNK6TensorIfE3subERKS0_,@function
_ZNK6TensorIfE3subERKS0_:               # @_ZNK6TensorIfE3subERKS0_
.Lfunc_begin13:
	.cfi_startproc
	.cfi_personality 155, DW.ref.__gxx_personality_v0
	.cfi_lsda 27, .Lexception13
# %bb.0:                                # %entry
	addi	sp, sp, -80
	.cfi_def_cfa_offset 80
	sw	ra, 76(sp)                      # 4-byte Folded Spill
	sw	s0, 72(sp)                      # 4-byte Folded Spill
	sw	s1, 68(sp)                      # 4-byte Folded Spill
	sw	s2, 64(sp)                      # 4-byte Folded Spill
	sw	s3, 60(sp)                      # 4-byte Folded Spill
	sw	s4, 56(sp)                      # 4-byte Folded Spill
	sw	s5, 52(sp)                      # 4-byte Folded Spill
	sw	s6, 48(sp)                      # 4-byte Folded Spill
	sw	s7, 44(sp)                      # 4-byte Folded Spill
	sw	s8, 40(sp)                      # 4-byte Folded Spill
	sw	s9, 36(sp)                      # 4-byte Folded Spill
	sw	s10, 32(sp)                     # 4-byte Folded Spill
	sw	s11, 28(sp)                     # 4-byte Folded Spill
	.cfi_offset ra, -4
	.cfi_offset s0, -8
	.cfi_offset s1, -12
	.cfi_offset s2, -16
	.cfi_offset s3, -20
	.cfi_offset s4, -24
	.cfi_offset s5, -28
	.cfi_offset s6, -32
	.cfi_offset s7, -36
	.cfi_offset s8, -40
	.cfi_offset s9, -44
	.cfi_offset s10, -48
	.cfi_offset s11, -52
	.cfi_remember_state
	mv	s0, a2
	mv	s7, a1
	mv	s2, a0
	lw	s1, 12(a2)
	lw	a0, 16(a2)
	sub	s3, a0, s1
	srai	s5, s3, 2
	beq	a0, s1, .LBB26_7
# %bb.1:                                # %cond.true.i.i.i.i.i
	srli	a0, s5, 29
	bnez	a0, .LBB26_59
# %bb.2:                                # %_ZNSt15__new_allocatorIiE8allocateEjPKv.exit.i.i.i.i.i
	mv	a0, s3
	call	_Znwj
	sw	a0, 0(sp)                       # 4-byte Folded Spill
	li	a0, 5
	blt	s3, a0, .LBB26_8
.LBB26_3:                               # %if.then.i.i.i.i.i.i.i.i.i.i
	lw	a0, 0(sp)                       # 4-byte Folded Reload
	mv	a1, s1
	mv	a2, s3
	call	memmove
.LBB26_4:                               # %_ZNK6TensorIfE8getShapeEv.exit
	lw	s8, 12(s7)
	lw	s10, 16(s7)
	sub	s9, s10, s8
	bne	s9, s3, .LBB26_82
# %bb.5:                                # %land.rhs.i.i
	beq	s10, s8, .LBB26_10
# %bb.6:                                # %if.then.i.i.i.i.i.i46
	mv	a0, s8
	lw	a1, 0(sp)                       # 4-byte Folded Reload
	mv	a2, s9
	call	memcmp
	seqz	a0, a0
	bne	s10, s8, .LBB26_11
	j	.LBB26_12
.LBB26_7:
	sw	zero, 0(sp)                     # 4-byte Folded Spill
	li	a0, 5
	bge	s3, a0, .LBB26_3
.LBB26_8:                               # %if.else.i.i.i.i.i.i.i.i.i.i
	li	a0, 4
	bne	s3, a0, .LBB26_4
# %bb.9:                                # %if.then2.i.i.i.i.i.i.i.i.i.i
	lw	a0, 0(s1)
	lw	a1, 0(sp)                       # 4-byte Folded Reload
	sw	a0, 0(a1)
	j	.LBB26_4
.LBB26_10:
                                        # implicit-def: $x10
	beq	s10, s8, .LBB26_12
.LBB26_11:                              # %_ZSt5equalIN9__gnu_cxx17__normal_iteratorIPKiSt6vectorIiSaIiEEEES7_EbT_S8_T0_.exit.i.i
	andi	a0, a0, 1
	beqz	a0, .LBB26_82
.LBB26_12:                              # %if.end
	lw	s1, 0(s0)
	lw	a0, 4(s0)
	sub	s5, a0, s1
	beq	a0, s1, .LBB26_28
# %bb.13:                               # %cond.true.i.i.i.i
	srai	a0, s5, 2
	srli	a1, a0, 29
	bnez	a1, .LBB26_61
# %bb.14:                               # %_ZNSt15__new_allocatorIfE8allocateEjPKv.exit.i.i.i.i
.Ltmp306:
	mv	a0, s5
	call	_Znwj
.Ltmp307:
# %bb.15:
	mv	s6, a0
	li	a0, 5
	blt	s5, a0, .LBB26_29
.LBB26_16:                              # %if.then.i.i.i.i.i.i.i.i.i
	mv	a0, s6
	mv	a1, s1
	mv	a2, s5
	call	memmove
.LBB26_17:                              # %invoke.cont10
	lw	s0, 0(s7)
	lw	s4, 4(s7)
	sub	s11, s4, s0
	srai	s1, s11, 2
	beq	s4, s0, .LBB26_31
# %bb.18:                               # %cond.true.i.i.i.i62
	srli	a0, s1, 29
	bnez	a0, .LBB26_64
# %bb.19:                               # %_ZNSt15__new_allocatorIfE8allocateEjPKv.exit.i.i.i.i64
.Ltmp313:
	mv	a0, s11
	call	_Znwj
.Ltmp314:
# %bb.20:
	mv	s7, a0
	li	a0, 5
	blt	s11, a0, .LBB26_32
.LBB26_21:                              # %if.then.i.i.i.i.i.i.i.i.i76
	mv	a0, s7
	mv	a1, s0
	mv	a2, s11
	call	memmove
.LBB26_22:                              # %_ZNSt6vectorIfSaIfEEC2ERKS1_.exit85
	beq	s4, s0, .LBB26_25
# %bb.23:                               # %for.body.preheader
	seqz	a0, s1
	add	a0, a0, s1
	slli	a0, a0, 2
	add	a0, a0, s6
	mv	a1, s7
	mv	a2, s6
.LBB26_24:                              # %for.body
                                        # =>This Inner Loop Header: Depth=1
	flw	fa5, 0(a2)
	flw	fa4, 0(a1)
	addi	a2, a2, 4
	fsub.s	fa5, fa4, fa5
	fsw	fa5, 0(a1)
	addi	a1, a1, 4
	bne	a2, a0, .LBB26_24
.LBB26_25:                              # %for.cond.cleanup
	sw	zero, 16(sp)
	sw	zero, 20(sp)
	sw	zero, 24(sp)
	beq	s4, s0, .LBB26_34
# %bb.26:                               # %cond.true.i.i.i.i99
	srli	a0, s1, 29
	bnez	a0, .LBB26_67
# %bb.27:                               # %_ZNSt15__new_allocatorIfE8allocateEjPKv.exit.i.i.i.i101
.Ltmp320:
	mv	a0, s11
	call	_Znwj
.Ltmp321:
	j	.LBB26_35
.LBB26_28:
	li	s6, 0
	li	a0, 5
	bge	s5, a0, .LBB26_16
.LBB26_29:                              # %if.else.i.i.i.i.i.i.i.i.i
	li	a0, 4
	bne	s5, a0, .LBB26_17
# %bb.30:                               # %if.then2.i.i.i.i.i.i.i.i.i
	flw	fa5, 0(s1)
	fsw	fa5, 0(s6)
	j	.LBB26_17
.LBB26_31:
	li	s7, 0
	li	a0, 5
	bge	s11, a0, .LBB26_21
.LBB26_32:                              # %if.else.i.i.i.i.i.i.i.i.i72
	li	a0, 4
	bne	s11, a0, .LBB26_22
# %bb.33:                               # %if.then2.i.i.i.i.i.i.i.i.i75
	flw	fa5, 0(s0)
	fsw	fa5, 0(s7)
	j	.LBB26_22
.LBB26_34:
	li	a0, 0
.LBB26_35:                              # %_ZNSt12_Vector_baseIfSaIfEEC2EjRKS0_.exit.i102
	add	s0, a0, s11
	li	a1, 5
	sw	a0, 16(sp)
	sw	a0, 20(sp)
	sw	s0, 24(sp)
	blt	s11, a1, .LBB26_55
# %bb.36:                               # %if.then.i.i.i.i.i.i.i.i.i113
	mv	a1, s7
	mv	a2, s11
	call	memcpy
.LBB26_37:                              # %_ZNSt6vectorIfSaIfEEC2ERKS1_.exit122
	sw	s0, 20(sp)
	sw	zero, 4(sp)
	sw	zero, 8(sp)
	sw	zero, 12(sp)
	beq	s10, s8, .LBB26_40
# %bb.38:                               # %cond.true.i.i.i.i132
	srai	a0, s9, 2
	srli	a1, a0, 29
	bnez	a1, .LBB26_70
# %bb.39:                               # %_ZNSt15__new_allocatorIiE8allocateEjPKv.exit.i.i.i.i
.Ltmp327:
	mv	a0, s9
	call	_Znwj
.Ltmp328:
	j	.LBB26_41
.LBB26_40:
	li	a0, 0
.LBB26_41:                              # %_ZNSt12_Vector_baseIiSaIiEEC2EjRKS0_.exit.i
	add	s0, a0, s9
	li	a1, 5
	sw	a0, 4(sp)
	sw	a0, 8(sp)
	sw	s0, 12(sp)
	blt	s9, a1, .LBB26_57
# %bb.42:                               # %if.then.i.i.i.i.i.i.i.i.i144
	mv	a1, s8
	mv	a2, s9
	call	memmove
.LBB26_43:                              # %_ZNSt6vectorIiSaIiEEC2ERKS1_.exit
	sw	s0, 8(sp)
.Ltmp334:
	addi	a1, sp, 16
	addi	a2, sp, 4
	mv	a0, s2
	call	_ZN6TensorIfEC1ESt6vectorIfSaIfEES1_IiSaIiEE
.Ltmp335:
# %bb.44:                               # %invoke.cont24
	lw	a0, 4(sp)
	beqz	a0, .LBB26_46
# %bb.45:                               # %if.then.i.i.i
	lw	a1, 12(sp)
	sub	a1, a1, a0
	call	_ZdlPvj
.LBB26_46:                              # %_ZNSt6vectorIiSaIiEED2Ev.exit
	lw	a0, 16(sp)
	beqz	a0, .LBB26_48
# %bb.47:                               # %if.then.i.i.i157
	lw	a1, 24(sp)
	sub	a1, a1, a0
	call	_ZdlPvj
.LBB26_48:                              # %_ZNSt6vectorIfSaIfEED2Ev.exit
	beqz	s7, .LBB26_50
# %bb.49:                               # %if.then.i.i.i163
	mv	a0, s7
	mv	a1, s11
	call	_ZdlPvj
.LBB26_50:                              # %_ZNSt6vectorIfSaIfEED2Ev.exit168
	beqz	s6, .LBB26_52
# %bb.51:                               # %if.then.i.i.i170
	mv	a0, s6
	mv	a1, s5
	call	_ZdlPvj
.LBB26_52:                              # %_ZNSt6vectorIfSaIfEED2Ev.exit175
	lw	a0, 0(sp)                       # 4-byte Folded Reload
	beqz	a0, .LBB26_54
# %bb.53:                               # %if.then.i.i.i177
	mv	a1, s3
	call	_ZdlPvj
.LBB26_54:                              # %_ZNSt6vectorIiSaIiEED2Ev.exit182
	lw	ra, 76(sp)                      # 4-byte Folded Reload
	lw	s0, 72(sp)                      # 4-byte Folded Reload
	lw	s1, 68(sp)                      # 4-byte Folded Reload
	lw	s2, 64(sp)                      # 4-byte Folded Reload
	lw	s3, 60(sp)                      # 4-byte Folded Reload
	lw	s4, 56(sp)                      # 4-byte Folded Reload
	lw	s5, 52(sp)                      # 4-byte Folded Reload
	lw	s6, 48(sp)                      # 4-byte Folded Reload
	lw	s7, 44(sp)                      # 4-byte Folded Reload
	lw	s8, 40(sp)                      # 4-byte Folded Reload
	lw	s9, 36(sp)                      # 4-byte Folded Reload
	lw	s10, 32(sp)                     # 4-byte Folded Reload
	lw	s11, 28(sp)                     # 4-byte Folded Reload
	.cfi_restore ra
	.cfi_restore s0
	.cfi_restore s1
	.cfi_restore s2
	.cfi_restore s3
	.cfi_restore s4
	.cfi_restore s5
	.cfi_restore s6
	.cfi_restore s7
	.cfi_restore s8
	.cfi_restore s9
	.cfi_restore s10
	.cfi_restore s11
	addi	sp, sp, 80
	.cfi_def_cfa_offset 0
	ret
.LBB26_55:                              # %if.else.i.i.i.i.i.i.i.i.i109
	.cfi_restore_state
	li	a1, 4
	bne	s11, a1, .LBB26_37
# %bb.56:                               # %if.then2.i.i.i.i.i.i.i.i.i112
	flw	fa5, 0(s7)
	fsw	fa5, 0(a0)
	j	.LBB26_37
.LBB26_57:                              # %if.else.i.i.i.i.i.i.i.i.i140
	li	a1, 4
	bne	s9, a1, .LBB26_43
# %bb.58:                               # %if.then2.i.i.i.i.i.i.i.i.i143
	lw	a1, 0(s8)
	sw	a1, 0(a0)
	j	.LBB26_43
.LBB26_59:                              # %if.then.i.i.i.i.i.i
	srli	a0, s5, 30
	beqz	a0, .LBB26_73
# %bb.60:                               # %if.then3.i.i.i.i.i.i
	call	_ZSt28__throw_bad_array_new_lengthv
.LBB26_61:                              # %if.then.i.i.i.i.i
	srli	a0, a0, 30
	beqz	a0, .LBB26_74
# %bb.62:                               # %if.then3.i.i.i.i.i
.Ltmp310:
	call	_ZSt28__throw_bad_array_new_lengthv
.Ltmp311:
# %bb.63:                               # %.noexc
.LBB26_64:                              # %if.then.i.i.i.i.i77
	srli	s1, s1, 30
	beqz	s1, .LBB26_76
# %bb.65:                               # %if.then3.i.i.i.i.i80
.Ltmp317:
	call	_ZSt28__throw_bad_array_new_lengthv
.Ltmp318:
# %bb.66:                               # %.noexc81
.LBB26_67:                              # %if.then.i.i.i.i.i114
	srli	s1, s1, 30
	beqz	s1, .LBB26_78
# %bb.68:                               # %if.then3.i.i.i.i.i117
.Ltmp324:
	call	_ZSt28__throw_bad_array_new_lengthv
.Ltmp325:
# %bb.69:                               # %.noexc118
.LBB26_70:                              # %if.then.i.i.i.i.i145
	srli	a0, a0, 30
	beqz	a0, .LBB26_80
# %bb.71:                               # %if.then3.i.i.i.i.i148
.Ltmp331:
	call	_ZSt28__throw_bad_array_new_lengthv
.Ltmp332:
# %bb.72:                               # %.noexc149
.LBB26_73:                              # %if.end.i.i.i.i.i.i
	call	_ZSt17__throw_bad_allocv
.LBB26_74:                              # %if.end.i.i.i.i.i
.Ltmp308:
	call	_ZSt17__throw_bad_allocv
.Ltmp309:
# %bb.75:                               # %.noexc52
.LBB26_76:                              # %if.end.i.i.i.i.i79
.Ltmp315:
	call	_ZSt17__throw_bad_allocv
.Ltmp316:
# %bb.77:                               # %.noexc82
.LBB26_78:                              # %if.end.i.i.i.i.i116
.Ltmp322:
	call	_ZSt17__throw_bad_allocv
.Ltmp323:
# %bb.79:                               # %.noexc119
.LBB26_80:                              # %if.end.i.i.i.i.i147
.Ltmp329:
	call	_ZSt17__throw_bad_allocv
.Ltmp330:
# %bb.81:                               # %.noexc150
.LBB26_82:                              # %if.then
	srai	a1, s9, 2
	lui	a0, %hi(.L.str.9)
	addi	a0, a0, %lo(.L.str.9)
	mv	a2, s5
	call	printf
.Ltmp303:
	li	a0, 1
	call	exit
.Ltmp304:
# %bb.83:                               # %invoke.cont7
.LBB26_84:                              # %lpad23
.Ltmp336:
	lw	a2, 4(sp)
	mv	s0, a0
	bnez	a2, .LBB26_90
# %bb.85:                               # %ehcleanup
	lw	a0, 16(sp)
	bnez	a0, .LBB26_93
.LBB26_86:                              # %ehcleanup25
	bnez	s7, .LBB26_95
.LBB26_87:                              # %ehcleanup26
	bnez	s6, .LBB26_96
.LBB26_88:                              # %ehcleanup29
	lw	a0, 0(sp)                       # 4-byte Folded Reload
	bnez	a0, .LBB26_97
.LBB26_89:                              # %_ZNSt6vectorIiSaIiEED2Ev.exit217
	mv	a0, s0
	call	_Unwind_Resume
.LBB26_90:                              # %if.then.i.i.i184
	lw	a1, 12(sp)
	sub	a1, a1, a2
	mv	a0, a2
	call	_ZdlPvj
	lw	a0, 16(sp)
	beqz	a0, .LBB26_86
	j	.LBB26_93
.LBB26_91:                              # %lpad
.Ltmp305:
	j	.LBB26_100
.LBB26_92:                              # %lpad21
.Ltmp333:
	mv	s0, a0
	lw	a0, 16(sp)
	beqz	a0, .LBB26_86
.LBB26_93:                              # %if.then.i.i.i191
	lw	a1, 24(sp)
	sub	a1, a1, a0
	call	_ZdlPvj
	beqz	s7, .LBB26_87
	j	.LBB26_95
.LBB26_94:                              # %lpad17
.Ltmp326:
	mv	s0, a0
	beqz	s7, .LBB26_87
.LBB26_95:                              # %if.then.i.i.i198
	mv	a0, s7
	mv	a1, s11
	call	_ZdlPvj
	beqz	s6, .LBB26_88
.LBB26_96:                              # %if.then.i.i.i205
	mv	a0, s6
	mv	a1, s5
	call	_ZdlPvj
	lw	a0, 0(sp)                       # 4-byte Folded Reload
	beqz	a0, .LBB26_89
.LBB26_97:                              # %if.then.i.i.i212
	mv	a1, s3
	call	_ZdlPvj
	mv	a0, s0
	call	_Unwind_Resume
.LBB26_98:                              # %lpad11
.Ltmp319:
	mv	s0, a0
	beqz	s6, .LBB26_88
	j	.LBB26_96
.LBB26_99:                              # %lpad9
.Ltmp312:
.LBB26_100:                             # %lpad
	mv	s0, a0
	lw	a0, 0(sp)                       # 4-byte Folded Reload
	beqz	a0, .LBB26_89
	j	.LBB26_97
.Lfunc_end26:
	.size	_ZNK6TensorIfE3subERKS0_, .Lfunc_end26-_ZNK6TensorIfE3subERKS0_
	.cfi_endproc
	.section	.gcc_except_table._ZNK6TensorIfE3subERKS0_,"aG",@progbits,_ZNK6TensorIfE3subERKS0_,comdat
	.p2align	2, 0x0
GCC_except_table26:
.Lexception13:
	.byte	255                             # @LPStart Encoding = omit
	.byte	255                             # @TType Encoding = omit
	.byte	3                               # Call site Encoding = udata4
	.uleb128 .Lcst_end13-.Lcst_begin13
.Lcst_begin13:
	.word	.Lfunc_begin13-.Lfunc_begin13   # >> Call Site 1 <<
	.word	.Ltmp306-.Lfunc_begin13         #   Call between .Lfunc_begin13 and .Ltmp306
	.word	0                               #     has no landing pad
	.byte	0                               #   On action: cleanup
	.word	.Ltmp306-.Lfunc_begin13         # >> Call Site 2 <<
	.word	.Ltmp307-.Ltmp306               #   Call between .Ltmp306 and .Ltmp307
	.word	.Ltmp312-.Lfunc_begin13         #     jumps to .Ltmp312
	.byte	0                               #   On action: cleanup
	.word	.Ltmp307-.Lfunc_begin13         # >> Call Site 3 <<
	.word	.Ltmp313-.Ltmp307               #   Call between .Ltmp307 and .Ltmp313
	.word	0                               #     has no landing pad
	.byte	0                               #   On action: cleanup
	.word	.Ltmp313-.Lfunc_begin13         # >> Call Site 4 <<
	.word	.Ltmp314-.Ltmp313               #   Call between .Ltmp313 and .Ltmp314
	.word	.Ltmp319-.Lfunc_begin13         #     jumps to .Ltmp319
	.byte	0                               #   On action: cleanup
	.word	.Ltmp314-.Lfunc_begin13         # >> Call Site 5 <<
	.word	.Ltmp320-.Ltmp314               #   Call between .Ltmp314 and .Ltmp320
	.word	0                               #     has no landing pad
	.byte	0                               #   On action: cleanup
	.word	.Ltmp320-.Lfunc_begin13         # >> Call Site 6 <<
	.word	.Ltmp321-.Ltmp320               #   Call between .Ltmp320 and .Ltmp321
	.word	.Ltmp326-.Lfunc_begin13         #     jumps to .Ltmp326
	.byte	0                               #   On action: cleanup
	.word	.Ltmp321-.Lfunc_begin13         # >> Call Site 7 <<
	.word	.Ltmp327-.Ltmp321               #   Call between .Ltmp321 and .Ltmp327
	.word	0                               #     has no landing pad
	.byte	0                               #   On action: cleanup
	.word	.Ltmp327-.Lfunc_begin13         # >> Call Site 8 <<
	.word	.Ltmp328-.Ltmp327               #   Call between .Ltmp327 and .Ltmp328
	.word	.Ltmp333-.Lfunc_begin13         #     jumps to .Ltmp333
	.byte	0                               #   On action: cleanup
	.word	.Ltmp328-.Lfunc_begin13         # >> Call Site 9 <<
	.word	.Ltmp334-.Ltmp328               #   Call between .Ltmp328 and .Ltmp334
	.word	0                               #     has no landing pad
	.byte	0                               #   On action: cleanup
	.word	.Ltmp334-.Lfunc_begin13         # >> Call Site 10 <<
	.word	.Ltmp335-.Ltmp334               #   Call between .Ltmp334 and .Ltmp335
	.word	.Ltmp336-.Lfunc_begin13         #     jumps to .Ltmp336
	.byte	0                               #   On action: cleanup
	.word	.Ltmp335-.Lfunc_begin13         # >> Call Site 11 <<
	.word	.Ltmp310-.Ltmp335               #   Call between .Ltmp335 and .Ltmp310
	.word	0                               #     has no landing pad
	.byte	0                               #   On action: cleanup
	.word	.Ltmp310-.Lfunc_begin13         # >> Call Site 12 <<
	.word	.Ltmp311-.Ltmp310               #   Call between .Ltmp310 and .Ltmp311
	.word	.Ltmp312-.Lfunc_begin13         #     jumps to .Ltmp312
	.byte	0                               #   On action: cleanup
	.word	.Ltmp317-.Lfunc_begin13         # >> Call Site 13 <<
	.word	.Ltmp318-.Ltmp317               #   Call between .Ltmp317 and .Ltmp318
	.word	.Ltmp319-.Lfunc_begin13         #     jumps to .Ltmp319
	.byte	0                               #   On action: cleanup
	.word	.Ltmp324-.Lfunc_begin13         # >> Call Site 14 <<
	.word	.Ltmp325-.Ltmp324               #   Call between .Ltmp324 and .Ltmp325
	.word	.Ltmp326-.Lfunc_begin13         #     jumps to .Ltmp326
	.byte	0                               #   On action: cleanup
	.word	.Ltmp331-.Lfunc_begin13         # >> Call Site 15 <<
	.word	.Ltmp332-.Ltmp331               #   Call between .Ltmp331 and .Ltmp332
	.word	.Ltmp333-.Lfunc_begin13         #     jumps to .Ltmp333
	.byte	0                               #   On action: cleanup
	.word	.Ltmp332-.Lfunc_begin13         # >> Call Site 16 <<
	.word	.Ltmp308-.Ltmp332               #   Call between .Ltmp332 and .Ltmp308
	.word	0                               #     has no landing pad
	.byte	0                               #   On action: cleanup
	.word	.Ltmp308-.Lfunc_begin13         # >> Call Site 17 <<
	.word	.Ltmp309-.Ltmp308               #   Call between .Ltmp308 and .Ltmp309
	.word	.Ltmp312-.Lfunc_begin13         #     jumps to .Ltmp312
	.byte	0                               #   On action: cleanup
	.word	.Ltmp315-.Lfunc_begin13         # >> Call Site 18 <<
	.word	.Ltmp316-.Ltmp315               #   Call between .Ltmp315 and .Ltmp316
	.word	.Ltmp319-.Lfunc_begin13         #     jumps to .Ltmp319
	.byte	0                               #   On action: cleanup
	.word	.Ltmp322-.Lfunc_begin13         # >> Call Site 19 <<
	.word	.Ltmp323-.Ltmp322               #   Call between .Ltmp322 and .Ltmp323
	.word	.Ltmp326-.Lfunc_begin13         #     jumps to .Ltmp326
	.byte	0                               #   On action: cleanup
	.word	.Ltmp329-.Lfunc_begin13         # >> Call Site 20 <<
	.word	.Ltmp330-.Ltmp329               #   Call between .Ltmp329 and .Ltmp330
	.word	.Ltmp333-.Lfunc_begin13         #     jumps to .Ltmp333
	.byte	0                               #   On action: cleanup
	.word	.Ltmp303-.Lfunc_begin13         # >> Call Site 21 <<
	.word	.Ltmp304-.Ltmp303               #   Call between .Ltmp303 and .Ltmp304
	.word	.Ltmp305-.Lfunc_begin13         #     jumps to .Ltmp305
	.byte	0                               #   On action: cleanup
	.word	.Ltmp304-.Lfunc_begin13         # >> Call Site 22 <<
	.word	.Lfunc_end26-.Ltmp304           #   Call between .Ltmp304 and .Lfunc_end26
	.word	0                               #     has no landing pad
	.byte	0                               #   On action: cleanup
.Lcst_end13:
	.p2align	2, 0x0
                                        # -- End function
	.section	.text._ZNK6TensorIfEmiERKS0_,"axG",@progbits,_ZNK6TensorIfEmiERKS0_,comdat
	.weak	_ZNK6TensorIfEmiERKS0_          # -- Begin function _ZNK6TensorIfEmiERKS0_
	.p2align	1
	.type	_ZNK6TensorIfEmiERKS0_,@function
_ZNK6TensorIfEmiERKS0_:                 # @_ZNK6TensorIfEmiERKS0_
	.cfi_startproc
# %bb.0:                                # %entry
	addi	sp, sp, -16
	.cfi_def_cfa_offset 16
	sw	ra, 12(sp)                      # 4-byte Folded Spill
	.cfi_offset ra, -4
	call	_ZNK6TensorIfE3subERKS0_
	lw	ra, 12(sp)                      # 4-byte Folded Reload
	.cfi_restore ra
	addi	sp, sp, 16
	.cfi_def_cfa_offset 0
	ret
.Lfunc_end27:
	.size	_ZNK6TensorIfEmiERKS0_, .Lfunc_end27-_ZNK6TensorIfEmiERKS0_
	.cfi_endproc
                                        # -- End function
	.section	.text._ZNK6TensorIfEmiEf,"axG",@progbits,_ZNK6TensorIfEmiEf,comdat
	.weak	_ZNK6TensorIfEmiEf              # -- Begin function _ZNK6TensorIfEmiEf
	.p2align	1
	.type	_ZNK6TensorIfEmiEf,@function
_ZNK6TensorIfEmiEf:                     # @_ZNK6TensorIfEmiEf
.Lfunc_begin14:
	.cfi_startproc
	.cfi_personality 155, DW.ref.__gxx_personality_v0
	.cfi_lsda 27, .Lexception14
# %bb.0:                                # %entry
	addi	sp, sp, -64
	.cfi_def_cfa_offset 64
	sw	ra, 60(sp)                      # 4-byte Folded Spill
	sw	s0, 56(sp)                      # 4-byte Folded Spill
	sw	s1, 52(sp)                      # 4-byte Folded Spill
	sw	s2, 48(sp)                      # 4-byte Folded Spill
	sw	s3, 44(sp)                      # 4-byte Folded Spill
	sw	s4, 40(sp)                      # 4-byte Folded Spill
	sw	s5, 36(sp)                      # 4-byte Folded Spill
	sw	s6, 32(sp)                      # 4-byte Folded Spill
	sw	s7, 28(sp)                      # 4-byte Folded Spill
	.cfi_offset ra, -4
	.cfi_offset s0, -8
	.cfi_offset s1, -12
	.cfi_offset s2, -16
	.cfi_offset s3, -20
	.cfi_offset s4, -24
	.cfi_offset s5, -28
	.cfi_offset s6, -32
	.cfi_offset s7, -36
	.cfi_remember_state
	mv	s5, a2
	mv	s7, a1
	mv	s2, a0
	lw	s0, 0(a1)
	lw	s1, 4(a1)
	sub	s4, s1, s0
	srai	s6, s4, 2
	beq	s1, s0, .LBB28_10
# %bb.1:                                # %cond.true.i.i.i.i
	srli	a0, s6, 29
	bnez	a0, .LBB28_34
# %bb.2:                                # %_ZNSt15__new_allocatorIfE8allocateEjPKv.exit.i.i.i.i
	mv	a0, s4
	call	_Znwj
	mv	s3, a0
	li	a0, 5
	blt	s4, a0, .LBB28_11
.LBB28_3:                               # %if.then.i.i.i.i.i.i.i.i.i
	mv	a0, s3
	mv	a1, s0
	mv	a2, s4
	call	memmove
.LBB28_4:                               # %_ZNSt6vectorIfSaIfEEC2ERKS1_.exit
	beq	s1, s0, .LBB28_7
# %bb.5:
	fmv.w.x	fa5, s5
	mv	a0, s4
	mv	a1, s3
.LBB28_6:                               # %for.body
                                        # =>This Inner Loop Header: Depth=1
	flw	fa4, 0(a1)
	addi	a0, a0, -4
	fsub.s	fa4, fa4, fa5
	fsw	fa4, 0(a1)
	addi	a1, a1, 4
	bnez	a0, .LBB28_6
.LBB28_7:                               # %for.cond.cleanup
	sw	zero, 16(sp)
	sw	zero, 20(sp)
	sw	zero, 24(sp)
	beq	s1, s0, .LBB28_13
# %bb.8:                                # %cond.true.i.i.i.i28
	srli	a0, s6, 29
	bnez	a0, .LBB28_36
# %bb.9:                                # %_ZNSt15__new_allocatorIfE8allocateEjPKv.exit.i.i.i.i30
.Ltmp337:
	mv	a0, s4
	call	_Znwj
.Ltmp338:
	j	.LBB28_14
.LBB28_10:
	li	s3, 0
	li	a0, 5
	bge	s4, a0, .LBB28_3
.LBB28_11:                              # %if.else.i.i.i.i.i.i.i.i.i
	li	a0, 4
	bne	s4, a0, .LBB28_4
# %bb.12:                               # %if.then2.i.i.i.i.i.i.i.i.i
	flw	fa5, 0(s0)
	fsw	fa5, 0(s3)
	j	.LBB28_4
.LBB28_13:
	li	a0, 0
.LBB28_14:                              # %_ZNSt12_Vector_baseIfSaIfEEC2EjRKS0_.exit.i32
	add	s1, a0, s4
	li	a1, 5
	sw	a0, 16(sp)
	sw	a0, 20(sp)
	sw	s1, 24(sp)
	blt	s4, a1, .LBB28_30
# %bb.15:                               # %if.then.i.i.i.i.i.i.i.i.i43
	mv	a1, s3
	mv	a2, s4
	call	memcpy
.LBB28_16:                              # %_ZNSt6vectorIfSaIfEEC2ERKS1_.exit50
	lw	s5, 12(s7)
	lw	a0, 16(s7)
	sw	s1, 20(sp)
	sub	s1, a0, s5
	sw	zero, 4(sp)
	sw	zero, 8(sp)
	sw	zero, 12(sp)
	beq	a0, s5, .LBB28_19
# %bb.17:                               # %cond.true.i.i.i.i59
	srai	a0, s1, 2
	srli	a1, a0, 29
	bnez	a1, .LBB28_39
# %bb.18:                               # %_ZNSt15__new_allocatorIiE8allocateEjPKv.exit.i.i.i.i
.Ltmp344:
	mv	a0, s1
	call	_Znwj
.Ltmp345:
	j	.LBB28_20
.LBB28_19:
	li	a0, 0
.LBB28_20:                              # %_ZNSt12_Vector_baseIiSaIiEEC2EjRKS0_.exit.i
